Component: ARM Compiler 5.06 update 6 (build 750) Tool: armlink [4d35ed]

==============================================================================

Section Cross References

    virtualcom.o(i.ADC_IRQHandler) refers to virtualcom.o(i.send0) for send0
    virtualcom.o(i.ADC_IRQHandler) refers to virtualcom.o(.data) for .data
    virtualcom.o(i.ADC_IRQHandler) refers to virtualcom.o(.bss) for .bss
    virtualcom.o(i.CDC0_ACM_UART_to_USB_Threadm) refers to usbd_lib_cdc.o(i.USBD_CDC_ACM_WriteData) for USBD_CDC_ACM_WriteData
    virtualcom.o(i.CDC0_ACM_UART_to_USB_Threadm) refers to virtualcom.o(.data) for .data
    virtualcom.o(i.CDC0_ACM_UART_to_USB_Threadm) refers to virtualcom.o(.bss) for .bss
    virtualcom.o(i.changePWM) refers to virtualcom.o(.data) for .data
    virtualcom.o(i.initADC) refers to virtualcom.o(i.__NVIC_EnableIRQ) for __NVIC_EnableIRQ
    virtualcom.o(i.initTIM0) refers to virtualcom.o(i.__NVIC_EnableIRQ) for __NVIC_EnableIRQ
    virtualcom.o(i.main) refers to usbd_lib_core.o(i.USBD_Initialize) for USBD_Initialize
    virtualcom.o(i.main) refers to usbd_lib_core.o(i.USBD_Connect) for USBD_Connect
    virtualcom.o(i.main) refers to rt_cmsis.o(i.osDelay) for osDelay
    virtualcom.o(i.main) refers to virtualcom.o(i.initTIM0) for initTIM0
    virtualcom.o(i.main) refers to virtualcom.o(i.initPWM) for initPWM
    virtualcom.o(i.main) refers to virtualcom.o(i.initADC) for initADC
    virtualcom.o(i.main) refers to rt_cmsis.o(i.osThreadCreate) for osThreadCreate
    virtualcom.o(i.main) refers to rt_cmsis.o(i.osSignalWait) for osSignalWait
    virtualcom.o(i.main) refers to virtualcom.o(.bss) for .bss
    virtualcom.o(i.main) refers to virtualcom.o(.constdata) for .constdata
    virtualcom.o(i.send0) refers to virtualcom.o(.data) for .data
    virtualcom.o(i.send0) refers to virtualcom.o(.bss) for .bss
    virtualcom.o(.constdata) refers to virtualcom.o(i.CDC0_ACM_UART_to_USB_Threadm) for CDC0_ACM_UART_to_USB_Threadm
    usbd_user_cdc_acm_uart_0.o(i.CDC0_ACM_UART_to_USB_Thread) refers to usbd_lib_cdc.o(i.USBD_CDC_ACM_WriteData) for USBD_CDC_ACM_WriteData
    usbd_user_cdc_acm_uart_0.o(i.CDC0_ACM_UART_to_USB_Thread) refers to rt_cmsis.o(i.osDelay) for osDelay
    usbd_user_cdc_acm_uart_0.o(i.CDC0_ACM_UART_to_USB_Thread) refers to uart_lpc17xx.o(.constdata) for Driver_USART1
    usbd_user_cdc_acm_uart_0.o(i.CDC0_ACM_UART_to_USB_Thread) refers to usbd_user_cdc_acm_uart_0.o(.data) for .data
    usbd_user_cdc_acm_uart_0.o(i.CDC0_ACM_UART_to_USB_Thread) refers to usbd_user_cdc_acm_uart_0.o(.bss) for .bss
    usbd_user_cdc_acm_uart_0.o(i.UART_Callback) refers to usbd_lib_cdc.o(i.USBD_CDC_ACM_ReadData) for USBD_CDC_ACM_ReadData
    usbd_user_cdc_acm_uart_0.o(i.UART_Callback) refers to uart_lpc17xx.o(.constdata) for Driver_USART1
    usbd_user_cdc_acm_uart_0.o(i.UART_Callback) refers to usbd_user_cdc_acm_uart_0.o(.bss) for .bss
    usbd_user_cdc_acm_uart_0.o(i.UART_Callback) refers to usbd_user_cdc_acm_uart_0.o(.data) for .data
    usbd_user_cdc_acm_uart_0.o(i.USBD_CDC0_ACM_DataReceived) refers to usbd_lib_cdc.o(i.USBD_CDC_ACM_ReadData) for USBD_CDC_ACM_ReadData
    usbd_user_cdc_acm_uart_0.o(i.USBD_CDC0_ACM_DataReceived) refers to usbd_lib_cdc.o(i.USBD_CDC_ACM_WriteData) for USBD_CDC_ACM_WriteData
    usbd_user_cdc_acm_uart_0.o(i.USBD_CDC0_ACM_DataReceived) refers to uart_lpc17xx.o(.constdata) for Driver_USART1
    usbd_user_cdc_acm_uart_0.o(i.USBD_CDC0_ACM_DataReceived) refers to usbd_user_cdc_acm_uart_0.o(.bss) for .bss
    usbd_user_cdc_acm_uart_0.o(i.USBD_CDC0_ACM_GetLineCoding) refers to usbd_user_cdc_acm_uart_0.o(.data) for .data
    usbd_user_cdc_acm_uart_0.o(i.USBD_CDC0_ACM_Initialize) refers to rt_cmsis.o(i.osThreadCreate) for osThreadCreate
    usbd_user_cdc_acm_uart_0.o(i.USBD_CDC0_ACM_Initialize) refers to uart_lpc17xx.o(.constdata) for Driver_USART1
    usbd_user_cdc_acm_uart_0.o(i.USBD_CDC0_ACM_Initialize) refers to usbd_user_cdc_acm_uart_0.o(i.UART_Callback) for UART_Callback
    usbd_user_cdc_acm_uart_0.o(i.USBD_CDC0_ACM_Initialize) refers to usbd_user_cdc_acm_uart_0.o(.constdata) for .constdata
    usbd_user_cdc_acm_uart_0.o(i.USBD_CDC0_ACM_Initialize) refers to usbd_user_cdc_acm_uart_0.o(.data) for .data
    usbd_user_cdc_acm_uart_0.o(i.USBD_CDC0_ACM_Reset) refers to uart_lpc17xx.o(.constdata) for Driver_USART1
    usbd_user_cdc_acm_uart_0.o(i.USBD_CDC0_ACM_SetLineCoding) refers to uart_lpc17xx.o(.constdata) for Driver_USART1
    usbd_user_cdc_acm_uart_0.o(i.USBD_CDC0_ACM_SetLineCoding) refers to usbd_user_cdc_acm_uart_0.o(.data) for .data
    usbd_user_cdc_acm_uart_0.o(i.USBD_CDC0_ACM_SetLineCoding) refers to usbd_user_cdc_acm_uart_0.o(.bss) for .bss
    usbd_user_cdc_acm_uart_0.o(i.USBD_CDC0_ACM_Uninitialize) refers to rt_cmsis.o(i.osThreadTerminate) for osThreadTerminate
    usbd_user_cdc_acm_uart_0.o(i.USBD_CDC0_ACM_Uninitialize) refers to usbd_user_cdc_acm_uart_0.o(.data) for .data
    usbd_user_cdc_acm_uart_0.o(i.USBD_CDC0_ACM_Uninitialize) refers to uart_lpc17xx.o(.constdata) for Driver_USART1
    usbd_user_cdc_acm_uart_0.o(.constdata) refers to usbd_user_cdc_acm_uart_0.o(i.CDC0_ACM_UART_to_USB_Thread) for CDC0_ACM_UART_to_USB_Thread
    glcd_fonts.o(.constdata) refers to glcd_fonts.o(.constdata) for Font_6x8_h
    glcd_fonts.o(.constdata) refers to glcd_fonts.o(.constdata) for Font_16x24_h
    glcd_mcb1700.o(i.GLCD_ClearScreen) refers to glcd_mcb1700.o(i.GLCD_SetWindow) for GLCD_SetWindow
    glcd_mcb1700.o(i.GLCD_ClearScreen) refers to glcd_mcb1700.o(i.wr_cmd) for wr_cmd
    glcd_mcb1700.o(i.GLCD_ClearScreen) refers to glcd_mcb1700.o(i.wr_dat_start) for wr_dat_start
    glcd_mcb1700.o(i.GLCD_ClearScreen) refers to glcd_mcb1700.o(i.wr_dat_only) for wr_dat_only
    glcd_mcb1700.o(i.GLCD_ClearScreen) refers to glcd_mcb1700.o(i.wr_dat_stop) for wr_dat_stop
    glcd_mcb1700.o(i.GLCD_ClearScreen) refers to glcd_mcb1700.o(.data) for .data
    glcd_mcb1700.o(i.GLCD_DrawBargraph) refers to glcd_mcb1700.o(i.GLCD_SetWindow) for GLCD_SetWindow
    glcd_mcb1700.o(i.GLCD_DrawBargraph) refers to glcd_mcb1700.o(i.wr_cmd) for wr_cmd
    glcd_mcb1700.o(i.GLCD_DrawBargraph) refers to glcd_mcb1700.o(i.wr_dat_start) for wr_dat_start
    glcd_mcb1700.o(i.GLCD_DrawBargraph) refers to glcd_mcb1700.o(i.wr_dat_only) for wr_dat_only
    glcd_mcb1700.o(i.GLCD_DrawBargraph) refers to glcd_mcb1700.o(i.wr_dat_stop) for wr_dat_stop
    glcd_mcb1700.o(i.GLCD_DrawBargraph) refers to glcd_mcb1700.o(.data) for .data
    glcd_mcb1700.o(i.GLCD_DrawBitmap) refers to glcd_mcb1700.o(i.GLCD_SetWindow) for GLCD_SetWindow
    glcd_mcb1700.o(i.GLCD_DrawBitmap) refers to glcd_mcb1700.o(i.wr_cmd) for wr_cmd
    glcd_mcb1700.o(i.GLCD_DrawBitmap) refers to glcd_mcb1700.o(i.wr_dat_start) for wr_dat_start
    glcd_mcb1700.o(i.GLCD_DrawBitmap) refers to glcd_mcb1700.o(i.wr_dat_only) for wr_dat_only
    glcd_mcb1700.o(i.GLCD_DrawBitmap) refers to glcd_mcb1700.o(i.wr_dat_stop) for wr_dat_stop
    glcd_mcb1700.o(i.GLCD_DrawChar) refers to glcd_mcb1700.o(i.GLCD_SetWindow) for GLCD_SetWindow
    glcd_mcb1700.o(i.GLCD_DrawChar) refers to glcd_mcb1700.o(i.wr_cmd) for wr_cmd
    glcd_mcb1700.o(i.GLCD_DrawChar) refers to glcd_mcb1700.o(i.wr_dat_start) for wr_dat_start
    glcd_mcb1700.o(i.GLCD_DrawChar) refers to glcd_mcb1700.o(i.wr_dat_only) for wr_dat_only
    glcd_mcb1700.o(i.GLCD_DrawChar) refers to glcd_mcb1700.o(i.wr_dat_stop) for wr_dat_stop
    glcd_mcb1700.o(i.GLCD_DrawChar) refers to glcd_mcb1700.o(.data) for .data
    glcd_mcb1700.o(i.GLCD_DrawHLine) refers to glcd_mcb1700.o(i.GLCD_SetWindow) for GLCD_SetWindow
    glcd_mcb1700.o(i.GLCD_DrawHLine) refers to glcd_mcb1700.o(i.wr_cmd) for wr_cmd
    glcd_mcb1700.o(i.GLCD_DrawHLine) refers to glcd_mcb1700.o(i.wr_dat_start) for wr_dat_start
    glcd_mcb1700.o(i.GLCD_DrawHLine) refers to glcd_mcb1700.o(i.wr_dat_only) for wr_dat_only
    glcd_mcb1700.o(i.GLCD_DrawHLine) refers to glcd_mcb1700.o(i.wr_dat_stop) for wr_dat_stop
    glcd_mcb1700.o(i.GLCD_DrawHLine) refers to glcd_mcb1700.o(.data) for .data
    glcd_mcb1700.o(i.GLCD_DrawPixel) refers to glcd_mcb1700.o(i.GLCD_SetWindow) for GLCD_SetWindow
    glcd_mcb1700.o(i.GLCD_DrawPixel) refers to glcd_mcb1700.o(i.wr_reg) for wr_reg
    glcd_mcb1700.o(i.GLCD_DrawPixel) refers to glcd_mcb1700.o(i.wr_cmd) for wr_cmd
    glcd_mcb1700.o(i.GLCD_DrawPixel) refers to glcd_mcb1700.o(.data) for .data
    glcd_mcb1700.o(i.GLCD_DrawPixel) refers to ssp_lpc17xx.o(.constdata) for Driver_SPI1
    glcd_mcb1700.o(i.GLCD_DrawRectangle) refers to glcd_mcb1700.o(i.GLCD_DrawHLine) for GLCD_DrawHLine
    glcd_mcb1700.o(i.GLCD_DrawRectangle) refers to glcd_mcb1700.o(i.GLCD_DrawVLine) for GLCD_DrawVLine
    glcd_mcb1700.o(i.GLCD_DrawString) refers to glcd_mcb1700.o(i.GLCD_DrawChar) for GLCD_DrawChar
    glcd_mcb1700.o(i.GLCD_DrawString) refers to glcd_mcb1700.o(.data) for .data
    glcd_mcb1700.o(i.GLCD_DrawVLine) refers to glcd_mcb1700.o(i.GLCD_SetWindow) for GLCD_SetWindow
    glcd_mcb1700.o(i.GLCD_DrawVLine) refers to glcd_mcb1700.o(i.wr_cmd) for wr_cmd
    glcd_mcb1700.o(i.GLCD_DrawVLine) refers to glcd_mcb1700.o(i.wr_dat_start) for wr_dat_start
    glcd_mcb1700.o(i.GLCD_DrawVLine) refers to glcd_mcb1700.o(i.wr_dat_only) for wr_dat_only
    glcd_mcb1700.o(i.GLCD_DrawVLine) refers to glcd_mcb1700.o(i.wr_dat_stop) for wr_dat_stop
    glcd_mcb1700.o(i.GLCD_DrawVLine) refers to glcd_mcb1700.o(.data) for .data
    glcd_mcb1700.o(i.GLCD_FrameBufferAccess) refers to glcd_mcb1700.o(i.GLCD_SetWindow) for GLCD_SetWindow
    glcd_mcb1700.o(i.GLCD_FrameBufferAccess) refers to glcd_mcb1700.o(i.wr_reg) for wr_reg
    glcd_mcb1700.o(i.GLCD_FrameBufferAccess) refers to glcd_mcb1700.o(i.wr_cmd) for wr_cmd
    glcd_mcb1700.o(i.GLCD_Initialize) refers to gpio_lpc17xx.o(i.GPIO_PortClock) for GPIO_PortClock
    glcd_mcb1700.o(i.GLCD_Initialize) refers to pin_lpc17xx.o(i.PIN_Configure) for PIN_Configure
    glcd_mcb1700.o(i.GLCD_Initialize) refers to gpio_lpc17xx.o(i.GPIO_SetDir) for GPIO_SetDir
    glcd_mcb1700.o(i.GLCD_Initialize) refers to gpio_lpc17xx.o(i.GPIO_PinWrite) for GPIO_PinWrite
    glcd_mcb1700.o(i.GLCD_Initialize) refers to glcd_mcb1700.o(i.rd_id_man) for rd_id_man
    glcd_mcb1700.o(i.GLCD_Initialize) refers to glcd_mcb1700.o(i.wr_cmd) for wr_cmd
    glcd_mcb1700.o(i.GLCD_Initialize) refers to glcd_mcb1700.o(i.spi_tran) for spi_tran
    glcd_mcb1700.o(i.GLCD_Initialize) refers to glcd_mcb1700.o(i.wr_reg) for wr_reg
    glcd_mcb1700.o(i.GLCD_Initialize) refers to glcd_mcb1700.o(i.delay_ms) for delay_ms
    glcd_mcb1700.o(i.GLCD_Initialize) refers to ssp_lpc17xx.o(.constdata) for Driver_SPI1
    glcd_mcb1700.o(i.GLCD_Initialize) refers to glcd_mcb1700.o(.data) for .data
    glcd_mcb1700.o(i.GLCD_SetBackgroundColor) refers to glcd_mcb1700.o(.data) for .data
    glcd_mcb1700.o(i.GLCD_SetFont) refers to glcd_mcb1700.o(.data) for .data
    glcd_mcb1700.o(i.GLCD_SetForegroundColor) refers to glcd_mcb1700.o(.data) for .data
    glcd_mcb1700.o(i.GLCD_SetWindow) refers to glcd_mcb1700.o(i.wr_reg) for wr_reg
    glcd_mcb1700.o(i.GLCD_SetWindow) refers to glcd_mcb1700.o(.data) for .data
    glcd_mcb1700.o(i.GLCD_Uninitialize) refers to gpio_lpc17xx.o(i.GPIO_PinWrite) for GPIO_PinWrite
    glcd_mcb1700.o(i.GLCD_Uninitialize) refers to ssp_lpc17xx.o(.constdata) for Driver_SPI1
    glcd_mcb1700.o(i.delay_ms) refers to system_lpc17xx.o(.data) for SystemCoreClock
    glcd_mcb1700.o(i.rd_id_man) refers to pin_lpc17xx.o(i.PIN_Configure) for PIN_Configure
    glcd_mcb1700.o(i.rd_id_man) refers to gpio_lpc17xx.o(i.GPIO_SetDir) for GPIO_SetDir
    glcd_mcb1700.o(i.rd_id_man) refers to gpio_lpc17xx.o(i.GPIO_PinWrite) for GPIO_PinWrite
    glcd_mcb1700.o(i.rd_id_man) refers to glcd_mcb1700.o(i.spi_tran_man) for spi_tran_man
    glcd_mcb1700.o(i.rd_id_man) refers to glcd_mcb1700.o(.data) for .data
    glcd_mcb1700.o(i.spi_tran) refers to ssp_lpc17xx.o(.constdata) for Driver_SPI1
    glcd_mcb1700.o(i.spi_tran_man) refers to gpio_lpc17xx.o(i.GPIO_SetDir) for GPIO_SetDir
    glcd_mcb1700.o(i.spi_tran_man) refers to gpio_lpc17xx.o(i.GPIO_PinWrite) for GPIO_PinWrite
    glcd_mcb1700.o(i.spi_tran_man) refers to glcd_mcb1700.o(i.delay_ms) for delay_ms
    glcd_mcb1700.o(i.spi_tran_man) refers to gpio_lpc17xx.o(i.GPIO_PinRead) for GPIO_PinRead
    glcd_mcb1700.o(i.spi_tran_man) refers to glcd_mcb1700.o(.data) for .data
    glcd_mcb1700.o(i.wr_cmd) refers to ssp_lpc17xx.o(.constdata) for Driver_SPI1
    glcd_mcb1700.o(i.wr_dat_only) refers to ssp_lpc17xx.o(.constdata) for Driver_SPI1
    glcd_mcb1700.o(i.wr_dat_start) refers to glcd_mcb1700.o(i.spi_tran) for spi_tran
    glcd_mcb1700.o(i.wr_dat_start) refers to ssp_lpc17xx.o(.constdata) for Driver_SPI1
    glcd_mcb1700.o(i.wr_dat_stop) refers to ssp_lpc17xx.o(.constdata) for Driver_SPI1
    glcd_mcb1700.o(i.wr_reg) refers to ssp_lpc17xx.o(.constdata) for Driver_SPI1
    led_mcb1700.o(i.LED_Initialize) refers to gpio_lpc17xx.o(i.GPIO_PortClock) for GPIO_PortClock
    led_mcb1700.o(i.LED_Initialize) refers to pin_lpc17xx.o(i.PIN_Configure) for PIN_Configure
    led_mcb1700.o(i.LED_Initialize) refers to gpio_lpc17xx.o(i.GPIO_SetDir) for GPIO_SetDir
    led_mcb1700.o(i.LED_Initialize) refers to gpio_lpc17xx.o(i.GPIO_PinWrite) for GPIO_PinWrite
    led_mcb1700.o(i.LED_Initialize) refers to led_mcb1700.o(.constdata) for .constdata
    led_mcb1700.o(i.LED_Off) refers to gpio_lpc17xx.o(i.GPIO_PinWrite) for GPIO_PinWrite
    led_mcb1700.o(i.LED_Off) refers to led_mcb1700.o(.constdata) for .constdata
    led_mcb1700.o(i.LED_On) refers to gpio_lpc17xx.o(i.GPIO_PinWrite) for GPIO_PinWrite
    led_mcb1700.o(i.LED_On) refers to led_mcb1700.o(.constdata) for .constdata
    led_mcb1700.o(i.LED_SetOut) refers to led_mcb1700.o(i.LED_On) for LED_On
    led_mcb1700.o(i.LED_SetOut) refers to led_mcb1700.o(i.LED_Off) for LED_Off
    led_mcb1700.o(i.LED_Uninitialize) refers to pin_lpc17xx.o(i.PIN_Configure) for PIN_Configure
    led_mcb1700.o(i.LED_Uninitialize) refers to led_mcb1700.o(.constdata) for .constdata
    rtx_conf_cm.o(.emb_text) refers to rt_cmsis.o(i.osKernelInitialize) for osKernelInitialize
    rtx_conf_cm.o(.emb_text) refers to rt_cmsis.o(i.osThreadCreate) for osThreadCreate
    rtx_conf_cm.o(.emb_text) refers to rt_cmsis.o(i.osKernelStart) for osKernelStart
    rtx_conf_cm.o(.emb_text) refers to exit.o(.text) for exit
    rtx_conf_cm.o(.emb_text) refers to rtx_conf_cm.o(.constdata) for os_thread_def_main
    rtx_conf_cm.o(i.__user_perthread_libspace) refers to rt_task.o(i.rt_tsk_self) for rt_tsk_self
    rtx_conf_cm.o(i.__user_perthread_libspace) refers to rt_cmsis.o(.data) for os_running
    rtx_conf_cm.o(i.__user_perthread_libspace) refers to rtx_conf_cm.o(.bss) for .bss
    rtx_conf_cm.o(i.__user_perthread_libspace) refers to libspace.o(.bss) for __libspace_start
    rtx_conf_cm.o(i._mutex_acquire) refers to rt_cmsis.o(.data) for os_running
    rtx_conf_cm.o(i._mutex_acquire) refers to rt_mutex.o(i.rt_mut_wait) for rt_mut_wait
    rtx_conf_cm.o(i._mutex_initialize) refers to rt_mutex.o(i.rt_mut_init) for rt_mut_init
    rtx_conf_cm.o(i._mutex_initialize) refers to rtx_conf_cm.o(.data) for .data
    rtx_conf_cm.o(i._mutex_initialize) refers to rtx_conf_cm.o(.bss) for .bss
    rtx_conf_cm.o(i._mutex_release) refers to rt_cmsis.o(.data) for os_running
    rtx_conf_cm.o(i._mutex_release) refers to rt_mutex.o(i.rt_mut_release) for rt_mut_release
    rtx_conf_cm.o(.constdata) refers to rt_cmsis.o(i.osTimerThread) for osTimerThread
    rtx_conf_cm.o(.constdata) refers to rtx_conf_cm.o(.bss) for os_messageQ_q_osTimerMessageQ
    rtx_conf_cm.o(.constdata) refers to virtualcom.o(i.main) for main
    otg_lpc17xx.o(i.USB_IRQHandler) refers to usbd_lpc17xx.o(i.USBD_IRQ) for USBD_IRQ
    otg_lpc17xx.o(i.USB_PinsConfigure) refers to pin_lpc17xx.o(i.PIN_Configure) for PIN_Configure
    otg_lpc17xx.o(i.USB_PinsConfigure) refers to otg_lpc17xx.o(.data) for .data
    otg_lpc17xx.o(i.USB_PinsUnconfigure) refers to pin_lpc17xx.o(i.PIN_Configure) for PIN_Configure
    otg_lpc17xx.o(i.USB_PinsUnconfigure) refers to otg_lpc17xx.o(.data) for .data
    ssp_lpc17xx.o(i.GetSSPClockFreq) refers to system_lpc17xx.o(.data) for SystemCoreClock
    ssp_lpc17xx.o(i.SSP1_Control) refers to ssp_lpc17xx.o(i.SSPx_Control) for SSPx_Control
    ssp_lpc17xx.o(i.SSP1_Control) refers to ssp_lpc17xx.o(.constdata) for .constdata
    ssp_lpc17xx.o(i.SSP1_GPDMA_Rx_SignalEvent) refers to ssp_lpc17xx.o(i.SSPx_GPDMA_Rx_SignalEvent) for SSPx_GPDMA_Rx_SignalEvent
    ssp_lpc17xx.o(i.SSP1_GPDMA_Rx_SignalEvent) refers to ssp_lpc17xx.o(.constdata) for .constdata
    ssp_lpc17xx.o(i.SSP1_GPDMA_Tx_SignalEvent) refers to ssp_lpc17xx.o(i.SSPx_GPDMA_Tx_SignalEvent) for SSPx_GPDMA_Tx_SignalEvent
    ssp_lpc17xx.o(i.SSP1_GPDMA_Tx_SignalEvent) refers to ssp_lpc17xx.o(.constdata) for .constdata
    ssp_lpc17xx.o(i.SSP1_GetDataCount) refers to gpdma_lpc17xx.o(i.GPDMA_ChannelGetCount) for GPDMA_ChannelGetCount
    ssp_lpc17xx.o(i.SSP1_GetDataCount) refers to ssp_lpc17xx.o(.constdata) for .constdata
    ssp_lpc17xx.o(i.SSP1_GetStatus) refers to ssp_lpc17xx.o(.constdata) for .constdata
    ssp_lpc17xx.o(i.SSP1_IRQHandler) refers to ssp_lpc17xx.o(i.SSPx_IRQHandler) for SSPx_IRQHandler
    ssp_lpc17xx.o(i.SSP1_IRQHandler) refers to ssp_lpc17xx.o(.constdata) for .constdata
    ssp_lpc17xx.o(i.SSP1_Initialize) refers to ssp_lpc17xx.o(i.SSPx_Initialize) for SSPx_Initialize
    ssp_lpc17xx.o(i.SSP1_Initialize) refers to ssp_lpc17xx.o(.constdata) for .constdata
    ssp_lpc17xx.o(i.SSP1_PowerControl) refers to ssp_lpc17xx.o(i.SSPx_PowerControl) for SSPx_PowerControl
    ssp_lpc17xx.o(i.SSP1_PowerControl) refers to ssp_lpc17xx.o(.constdata) for .constdata
    ssp_lpc17xx.o(i.SSP1_Receive) refers to ssp_lpc17xx.o(i.SSPx_Receive) for SSPx_Receive
    ssp_lpc17xx.o(i.SSP1_Receive) refers to ssp_lpc17xx.o(.constdata) for .constdata
    ssp_lpc17xx.o(i.SSP1_Send) refers to ssp_lpc17xx.o(i.SSPx_Send) for SSPx_Send
    ssp_lpc17xx.o(i.SSP1_Send) refers to ssp_lpc17xx.o(.constdata) for .constdata
    ssp_lpc17xx.o(i.SSP1_Transfer) refers to ssp_lpc17xx.o(i.SSPx_Transfer) for SSPx_Transfer
    ssp_lpc17xx.o(i.SSP1_Transfer) refers to ssp_lpc17xx.o(.constdata) for .constdata
    ssp_lpc17xx.o(i.SSP1_Uninitialize) refers to ssp_lpc17xx.o(i.SSPx_Uninitialize) for SSPx_Uninitialize
    ssp_lpc17xx.o(i.SSP1_Uninitialize) refers to ssp_lpc17xx.o(.constdata) for .constdata
    ssp_lpc17xx.o(i.SSP_GetCapabilities) refers to ssp_lpc17xx.o(.constdata) for .constdata
    ssp_lpc17xx.o(i.SSP_GetVersion) refers to ssp_lpc17xx.o(.constdata) for .constdata
    ssp_lpc17xx.o(i.SSPx_Control) refers to gpdma_lpc17xx.o(i.GPDMA_ChannelDisable) for GPDMA_ChannelDisable
    ssp_lpc17xx.o(i.SSPx_Control) refers to rt_memclr_w.o(.text) for __aeabi_memclr4
    ssp_lpc17xx.o(i.SSPx_Control) refers to ssp_lpc17xx.o(i.GetSSPClockFreq) for GetSSPClockFreq
    ssp_lpc17xx.o(i.SSPx_Control) refers to gpio_lpc17xx.o(i.GPIO_PinWrite) for GPIO_PinWrite
    ssp_lpc17xx.o(i.SSPx_Control) refers to pin_lpc17xx.o(i.PIN_Configure) for PIN_Configure
    ssp_lpc17xx.o(i.SSPx_Control) refers to gpio_lpc17xx.o(i.GPIO_SetDir) for GPIO_SetDir
    ssp_lpc17xx.o(i.SSPx_Initialize) refers to rt_memclr_w.o(.text) for __aeabi_memclr4
    ssp_lpc17xx.o(i.SSPx_Initialize) refers to pin_lpc17xx.o(i.PIN_Configure) for PIN_Configure
    ssp_lpc17xx.o(i.SSPx_Initialize) refers to gpdma_lpc17xx.o(i.GPDMA_Initialize) for GPDMA_Initialize
    ssp_lpc17xx.o(i.SSPx_Initialize) refers to gpdma_lpc17xx.o(i.GPDMA_PeripheralSelect) for GPDMA_PeripheralSelect
    ssp_lpc17xx.o(i.SSPx_PowerControl) refers to gpdma_lpc17xx.o(i.GPDMA_ChannelDisable) for GPDMA_ChannelDisable
    ssp_lpc17xx.o(i.SSPx_PowerControl) refers to ssp_lpc17xx.o(i.__NVIC_ClearPendingIRQ) for __NVIC_ClearPendingIRQ
    ssp_lpc17xx.o(i.SSPx_PowerControl) refers to rt_memclr_w.o(.text) for __aeabi_memclr4
    ssp_lpc17xx.o(i.SSPx_Receive) refers to gpdma_lpc17xx.o(i.GPDMA_ChannelConfigure) for GPDMA_ChannelConfigure
    ssp_lpc17xx.o(i.SSPx_Receive) refers to ssp_lpc17xx.o(.data) for .data
    ssp_lpc17xx.o(i.SSPx_Send) refers to gpdma_lpc17xx.o(i.GPDMA_ChannelConfigure) for GPDMA_ChannelConfigure
    ssp_lpc17xx.o(i.SSPx_Send) refers to ssp_lpc17xx.o(.data) for .data
    ssp_lpc17xx.o(i.SSPx_Transfer) refers to gpdma_lpc17xx.o(i.GPDMA_ChannelConfigure) for GPDMA_ChannelConfigure
    ssp_lpc17xx.o(i.SSPx_Uninitialize) refers to pin_lpc17xx.o(i.PIN_Configure) for PIN_Configure
    ssp_lpc17xx.o(i.SSPx_Uninitialize) refers to gpdma_lpc17xx.o(i.GPDMA_Uninitialize) for GPDMA_Uninitialize
    ssp_lpc17xx.o(.constdata) refers to ssp_lpc17xx.o(.data) for SSP1_pin_ssel
    ssp_lpc17xx.o(.constdata) refers to ssp_lpc17xx.o(.data) for SSP1_pin_sck
    ssp_lpc17xx.o(.constdata) refers to ssp_lpc17xx.o(.data) for SSP1_pin_miso
    ssp_lpc17xx.o(.constdata) refers to ssp_lpc17xx.o(.data) for SSP1_pin_mosi
    ssp_lpc17xx.o(.constdata) refers to ssp_lpc17xx.o(i.SSP1_GPDMA_Tx_SignalEvent) for SSP1_GPDMA_Tx_SignalEvent
    ssp_lpc17xx.o(.constdata) refers to ssp_lpc17xx.o(i.SSP1_GPDMA_Rx_SignalEvent) for SSP1_GPDMA_Rx_SignalEvent
    ssp_lpc17xx.o(.constdata) refers to ssp_lpc17xx.o(.bss) for SSP1_Info
    ssp_lpc17xx.o(.constdata) refers to ssp_lpc17xx.o(.bss) for SSP1_Xfer
    ssp_lpc17xx.o(.constdata) refers to ssp_lpc17xx.o(i.SSP_GetVersion) for SSP_GetVersion
    ssp_lpc17xx.o(.constdata) refers to ssp_lpc17xx.o(i.SSP_GetCapabilities) for SSP_GetCapabilities
    ssp_lpc17xx.o(.constdata) refers to ssp_lpc17xx.o(i.SSP1_Initialize) for SSP1_Initialize
    ssp_lpc17xx.o(.constdata) refers to ssp_lpc17xx.o(i.SSP1_Uninitialize) for SSP1_Uninitialize
    ssp_lpc17xx.o(.constdata) refers to ssp_lpc17xx.o(i.SSP1_PowerControl) for SSP1_PowerControl
    ssp_lpc17xx.o(.constdata) refers to ssp_lpc17xx.o(i.SSP1_Send) for SSP1_Send
    ssp_lpc17xx.o(.constdata) refers to ssp_lpc17xx.o(i.SSP1_Receive) for SSP1_Receive
    ssp_lpc17xx.o(.constdata) refers to ssp_lpc17xx.o(i.SSP1_Transfer) for SSP1_Transfer
    ssp_lpc17xx.o(.constdata) refers to ssp_lpc17xx.o(i.SSP1_GetDataCount) for SSP1_GetDataCount
    ssp_lpc17xx.o(.constdata) refers to ssp_lpc17xx.o(i.SSP1_Control) for SSP1_Control
    ssp_lpc17xx.o(.constdata) refers to ssp_lpc17xx.o(i.SSP1_GetStatus) for SSP1_GetStatus
    uart_lpc17xx.o(i.GetUsartClockFreq) refers to system_lpc17xx.o(.data) for SystemCoreClock
    uart_lpc17xx.o(i.UART1_IRQHandler) refers to uart_lpc17xx.o(i.USART_IRQHandler) for USART_IRQHandler
    uart_lpc17xx.o(i.UART1_IRQHandler) refers to uart_lpc17xx.o(.constdata) for .constdata
    uart_lpc17xx.o(i.USART1_Control) refers to uart_lpc17xx.o(i.USART_Control) for USART_Control
    uart_lpc17xx.o(i.USART1_Control) refers to uart_lpc17xx.o(.constdata) for .constdata
    uart_lpc17xx.o(i.USART1_GPDMA_Rx_Event) refers to uart_lpc17xx.o(.constdata) for .constdata
    uart_lpc17xx.o(i.USART1_GPDMA_Tx_Event) refers to uart_lpc17xx.o(.constdata) for .constdata
    uart_lpc17xx.o(i.USART1_GetCapabilities) refers to uart_lpc17xx.o(.constdata) for .constdata
    uart_lpc17xx.o(i.USART1_GetModemStatus) refers to uart_lpc17xx.o(i.USART_GetModemStatus) for USART_GetModemStatus
    uart_lpc17xx.o(i.USART1_GetModemStatus) refers to uart_lpc17xx.o(.constdata) for .constdata
    uart_lpc17xx.o(i.USART1_GetRxCount) refers to gpdma_lpc17xx.o(i.GPDMA_ChannelGetCount) for GPDMA_ChannelGetCount
    uart_lpc17xx.o(i.USART1_GetRxCount) refers to uart_lpc17xx.o(.constdata) for .constdata
    uart_lpc17xx.o(i.USART1_GetStatus) refers to uart_lpc17xx.o(i.USART_GetStatus) for USART_GetStatus
    uart_lpc17xx.o(i.USART1_GetStatus) refers to uart_lpc17xx.o(.constdata) for .constdata
    uart_lpc17xx.o(i.USART1_GetTxCount) refers to gpdma_lpc17xx.o(i.GPDMA_ChannelGetCount) for GPDMA_ChannelGetCount
    uart_lpc17xx.o(i.USART1_GetTxCount) refers to uart_lpc17xx.o(.constdata) for .constdata
    uart_lpc17xx.o(i.USART1_Initialize) refers to uart_lpc17xx.o(i.USART_Initialize) for USART_Initialize
    uart_lpc17xx.o(i.USART1_Initialize) refers to uart_lpc17xx.o(.constdata) for .constdata
    uart_lpc17xx.o(i.USART1_PowerControl) refers to uart_lpc17xx.o(i.USART_PowerControl) for USART_PowerControl
    uart_lpc17xx.o(i.USART1_PowerControl) refers to uart_lpc17xx.o(.constdata) for .constdata
    uart_lpc17xx.o(i.USART1_Receive) refers to uart_lpc17xx.o(i.USART_Receive) for USART_Receive
    uart_lpc17xx.o(i.USART1_Receive) refers to uart_lpc17xx.o(.constdata) for .constdata
    uart_lpc17xx.o(i.USART1_Send) refers to uart_lpc17xx.o(i.USART_Send) for USART_Send
    uart_lpc17xx.o(i.USART1_Send) refers to uart_lpc17xx.o(.constdata) for .constdata
    uart_lpc17xx.o(i.USART1_SetModemControl) refers to uart_lpc17xx.o(i.USART_SetModemControl) for USART_SetModemControl
    uart_lpc17xx.o(i.USART1_SetModemControl) refers to uart_lpc17xx.o(.constdata) for .constdata
    uart_lpc17xx.o(i.USART1_Transfer) refers to uart_lpc17xx.o(i.USART_Receive) for USART_Receive
    uart_lpc17xx.o(i.USART1_Transfer) refers to uart_lpc17xx.o(i.USART_Send) for USART_Send
    uart_lpc17xx.o(i.USART1_Transfer) refers to uart_lpc17xx.o(.constdata) for .constdata
    uart_lpc17xx.o(i.USART1_Uninitialize) refers to uart_lpc17xx.o(i.USART_Uninitialize) for USART_Uninitialize
    uart_lpc17xx.o(i.USART1_Uninitialize) refers to uart_lpc17xx.o(.constdata) for .constdata
    uart_lpc17xx.o(i.USART_Control) refers to pin_lpc17xx.o(i.PIN_Configure) for PIN_Configure
    uart_lpc17xx.o(i.USART_Control) refers to gpdma_lpc17xx.o(i.GPDMA_ChannelDisable) for GPDMA_ChannelDisable
    uart_lpc17xx.o(i.USART_Control) refers to uart_lpc17xx.o(i.GetUsartClockFreq) for GetUsartClockFreq
    uart_lpc17xx.o(i.USART_Control) refers to uart_lpc17xx.o(i.USART_SetBaudrate) for USART_SetBaudrate
    uart_lpc17xx.o(i.USART_IRQHandler) refers to uart_lpc17xx.o(i.USART_RxLineIntHandler) for USART_RxLineIntHandler
    uart_lpc17xx.o(i.USART_Initialize) refers to pin_lpc17xx.o(i.PIN_Configure) for PIN_Configure
    uart_lpc17xx.o(i.USART_Initialize) refers to gpdma_lpc17xx.o(i.GPDMA_Initialize) for GPDMA_Initialize
    uart_lpc17xx.o(i.USART_PowerControl) refers to pin_lpc17xx.o(i.PIN_Configure) for PIN_Configure
    uart_lpc17xx.o(i.USART_PowerControl) refers to gpdma_lpc17xx.o(i.GPDMA_ChannelDisable) for GPDMA_ChannelDisable
    uart_lpc17xx.o(i.USART_PowerControl) refers to uart_lpc17xx.o(i.__NVIC_ClearPendingIRQ) for __NVIC_ClearPendingIRQ
    uart_lpc17xx.o(i.USART_Receive) refers to gpdma_lpc17xx.o(i.GPDMA_PeripheralSelect) for GPDMA_PeripheralSelect
    uart_lpc17xx.o(i.USART_Receive) refers to gpdma_lpc17xx.o(i.GPDMA_ChannelConfigure) for GPDMA_ChannelConfigure
    uart_lpc17xx.o(i.USART_Receive) refers to uart_lpc17xx.o(i.USART_Send) for USART_Send
    uart_lpc17xx.o(i.USART_Send) refers to uart_lpc17xx.o(i.USART_Receive) for USART_Receive
    uart_lpc17xx.o(i.USART_Send) refers to gpdma_lpc17xx.o(i.GPDMA_PeripheralSelect) for GPDMA_PeripheralSelect
    uart_lpc17xx.o(i.USART_Send) refers to gpdma_lpc17xx.o(i.GPDMA_ChannelConfigure) for GPDMA_ChannelConfigure
    uart_lpc17xx.o(i.USART_SetBaudrate) refers to uart_lpc17xx.o(i.GetUsartClockFreq) for GetUsartClockFreq
    uart_lpc17xx.o(i.USART_SetBaudrate) refers to lludivv7m.o(.text) for __aeabi_uldivmod
    uart_lpc17xx.o(i.USART_SetBaudrate) refers to uart_lpc17xx.o(.constdata) for .constdata
    uart_lpc17xx.o(i.USART_Uninitialize) refers to pin_lpc17xx.o(i.PIN_Configure) for PIN_Configure
    uart_lpc17xx.o(i.USART_Uninitialize) refers to gpdma_lpc17xx.o(i.GPDMA_Uninitialize) for GPDMA_Uninitialize
    uart_lpc17xx.o(i.USARTx_GetVersion) refers to uart_lpc17xx.o(.constdata) for .constdata
    uart_lpc17xx.o(.constdata) refers to uart_lpc17xx.o(.constdata) for USART1_DMA_Tx
    uart_lpc17xx.o(.constdata) refers to uart_lpc17xx.o(.constdata) for USART1_DMA_Rx
    uart_lpc17xx.o(.constdata) refers to uart_lpc17xx.o(.bss) for USART1_Info
    uart_lpc17xx.o(.constdata) refers to uart_lpc17xx.o(i.USART1_GPDMA_Tx_Event) for USART1_GPDMA_Tx_Event
    uart_lpc17xx.o(.constdata) refers to uart_lpc17xx.o(i.USART1_GPDMA_Rx_Event) for USART1_GPDMA_Rx_Event
    uart_lpc17xx.o(.constdata) refers to uart_lpc17xx.o(i.USARTx_GetVersion) for USARTx_GetVersion
    uart_lpc17xx.o(.constdata) refers to uart_lpc17xx.o(i.USART1_GetCapabilities) for USART1_GetCapabilities
    uart_lpc17xx.o(.constdata) refers to uart_lpc17xx.o(i.USART1_Initialize) for USART1_Initialize
    uart_lpc17xx.o(.constdata) refers to uart_lpc17xx.o(i.USART1_Uninitialize) for USART1_Uninitialize
    uart_lpc17xx.o(.constdata) refers to uart_lpc17xx.o(i.USART1_PowerControl) for USART1_PowerControl
    uart_lpc17xx.o(.constdata) refers to uart_lpc17xx.o(i.USART1_Send) for USART1_Send
    uart_lpc17xx.o(.constdata) refers to uart_lpc17xx.o(i.USART1_Receive) for USART1_Receive
    uart_lpc17xx.o(.constdata) refers to uart_lpc17xx.o(i.USART1_Transfer) for USART1_Transfer
    uart_lpc17xx.o(.constdata) refers to uart_lpc17xx.o(i.USART1_GetTxCount) for USART1_GetTxCount
    uart_lpc17xx.o(.constdata) refers to uart_lpc17xx.o(i.USART1_GetRxCount) for USART1_GetRxCount
    uart_lpc17xx.o(.constdata) refers to uart_lpc17xx.o(i.USART1_Control) for USART1_Control
    uart_lpc17xx.o(.constdata) refers to uart_lpc17xx.o(i.USART1_GetStatus) for USART1_GetStatus
    uart_lpc17xx.o(.constdata) refers to uart_lpc17xx.o(i.USART1_SetModemControl) for USART1_SetModemControl
    uart_lpc17xx.o(.constdata) refers to uart_lpc17xx.o(i.USART1_GetModemStatus) for USART1_GetModemStatus
    usbd_lpc17xx.o(i.USBD_DeviceConnect) refers to usbd_lpc17xx.o(i.check_and_set_var) for check_and_set_var
    usbd_lpc17xx.o(i.USBD_DeviceConnect) refers to usbd_lpc17xx.o(i.__NVIC_DisableIRQ) for __NVIC_DisableIRQ
    usbd_lpc17xx.o(i.USBD_DeviceConnect) refers to usbd_lpc17xx.o(i.SIE_WrCmdData) for SIE_WrCmdData
    usbd_lpc17xx.o(i.USBD_DeviceConnect) refers to usbd_lpc17xx.o(i.__NVIC_EnableIRQ) for __NVIC_EnableIRQ
    usbd_lpc17xx.o(i.USBD_DeviceConnect) refers to otg_lpc17xx.o(.data) for usb_state
    usbd_lpc17xx.o(i.USBD_DeviceConnect) refers to usbd_lpc17xx.o(.data) for .data
    usbd_lpc17xx.o(i.USBD_DeviceDisconnect) refers to usbd_lpc17xx.o(i.check_and_set_var) for check_and_set_var
    usbd_lpc17xx.o(i.USBD_DeviceDisconnect) refers to usbd_lpc17xx.o(i.__NVIC_DisableIRQ) for __NVIC_DisableIRQ
    usbd_lpc17xx.o(i.USBD_DeviceDisconnect) refers to usbd_lpc17xx.o(i.SIE_WrCmdData) for SIE_WrCmdData
    usbd_lpc17xx.o(i.USBD_DeviceDisconnect) refers to usbd_lpc17xx.o(i.__NVIC_EnableIRQ) for __NVIC_EnableIRQ
    usbd_lpc17xx.o(i.USBD_DeviceDisconnect) refers to otg_lpc17xx.o(.data) for usb_state
    usbd_lpc17xx.o(i.USBD_DeviceDisconnect) refers to usbd_lpc17xx.o(.data) for .data
    usbd_lpc17xx.o(i.USBD_DeviceGetState) refers to usbd_lpc17xx.o(.data) for .data
    usbd_lpc17xx.o(i.USBD_DeviceRemoteWakeup) refers to usbd_lpc17xx.o(i.check_and_set_var) for check_and_set_var
    usbd_lpc17xx.o(i.USBD_DeviceRemoteWakeup) refers to usbd_lpc17xx.o(i.__NVIC_DisableIRQ) for __NVIC_DisableIRQ
    usbd_lpc17xx.o(i.USBD_DeviceRemoteWakeup) refers to usbd_lpc17xx.o(i.USBD_PowerControl) for USBD_PowerControl
    usbd_lpc17xx.o(i.USBD_DeviceRemoteWakeup) refers to usbd_lpc17xx.o(i.SIE_RdCmdData) for SIE_RdCmdData
    usbd_lpc17xx.o(i.USBD_DeviceRemoteWakeup) refers to usbd_lpc17xx.o(i.SIE_WrCmdData) for SIE_WrCmdData
    usbd_lpc17xx.o(i.USBD_DeviceRemoteWakeup) refers to usbd_lpc17xx.o(i.__NVIC_EnableIRQ) for __NVIC_EnableIRQ
    usbd_lpc17xx.o(i.USBD_DeviceRemoteWakeup) refers to otg_lpc17xx.o(.data) for usb_state
    usbd_lpc17xx.o(i.USBD_DeviceRemoteWakeup) refers to usbd_lpc17xx.o(.data) for .data
    usbd_lpc17xx.o(i.USBD_DeviceSetAddress) refers to usbd_lpc17xx.o(i.check_and_set_var) for check_and_set_var
    usbd_lpc17xx.o(i.USBD_DeviceSetAddress) refers to usbd_lpc17xx.o(i.__NVIC_DisableIRQ) for __NVIC_DisableIRQ
    usbd_lpc17xx.o(i.USBD_DeviceSetAddress) refers to usbd_lpc17xx.o(i.SIE_WrCmdData) for SIE_WrCmdData
    usbd_lpc17xx.o(i.USBD_DeviceSetAddress) refers to usbd_lpc17xx.o(i.__NVIC_EnableIRQ) for __NVIC_EnableIRQ
    usbd_lpc17xx.o(i.USBD_DeviceSetAddress) refers to otg_lpc17xx.o(.data) for usb_state
    usbd_lpc17xx.o(i.USBD_DeviceSetAddress) refers to usbd_lpc17xx.o(.data) for .data
    usbd_lpc17xx.o(i.USBD_EndpointConfigure) refers to usbd_lpc17xx.o(i.check_and_set_var) for check_and_set_var
    usbd_lpc17xx.o(i.USBD_EndpointConfigure) refers to usbd_lpc17xx.o(i.__NVIC_DisableIRQ) for __NVIC_DisableIRQ
    usbd_lpc17xx.o(i.USBD_EndpointConfigure) refers to rt_memclr_w.o(.text) for __aeabi_memclr4
    usbd_lpc17xx.o(i.USBD_EndpointConfigure) refers to usbd_lpc17xx.o(i.SIE_WrCmdData) for SIE_WrCmdData
    usbd_lpc17xx.o(i.USBD_EndpointConfigure) refers to usbd_lpc17xx.o(i.__NVIC_EnableIRQ) for __NVIC_EnableIRQ
    usbd_lpc17xx.o(i.USBD_EndpointConfigure) refers to usbd_lpc17xx.o(.bss) for .bss
    usbd_lpc17xx.o(i.USBD_EndpointConfigure) refers to otg_lpc17xx.o(.data) for usb_state
    usbd_lpc17xx.o(i.USBD_EndpointConfigure) refers to usbd_lpc17xx.o(.data) for .data
    usbd_lpc17xx.o(i.USBD_EndpointStall) refers to usbd_lpc17xx.o(i.check_and_set_var) for check_and_set_var
    usbd_lpc17xx.o(i.USBD_EndpointStall) refers to usbd_lpc17xx.o(i.__NVIC_DisableIRQ) for __NVIC_DisableIRQ
    usbd_lpc17xx.o(i.USBD_EndpointStall) refers to usbd_lpc17xx.o(i.SIE_WrCmdData) for SIE_WrCmdData
    usbd_lpc17xx.o(i.USBD_EndpointStall) refers to usbd_lpc17xx.o(i.__NVIC_EnableIRQ) for __NVIC_EnableIRQ
    usbd_lpc17xx.o(i.USBD_EndpointStall) refers to otg_lpc17xx.o(.data) for usb_state
    usbd_lpc17xx.o(i.USBD_EndpointStall) refers to usbd_lpc17xx.o(.data) for .data
    usbd_lpc17xx.o(i.USBD_EndpointTransfer) refers to usbd_lpc17xx.o(i.check_and_set_var) for check_and_set_var
    usbd_lpc17xx.o(i.USBD_EndpointTransfer) refers to usbd_lpc17xx.o(i.__NVIC_DisableIRQ) for __NVIC_DisableIRQ
    usbd_lpc17xx.o(i.USBD_EndpointTransfer) refers to usbd_lpc17xx.o(i.USBD_HW_WriteEP) for USBD_HW_WriteEP
    usbd_lpc17xx.o(i.USBD_EndpointTransfer) refers to usbd_lpc17xx.o(i.__NVIC_EnableIRQ) for __NVIC_EnableIRQ
    usbd_lpc17xx.o(i.USBD_EndpointTransfer) refers to usbd_lpc17xx.o(.bss) for .bss
    usbd_lpc17xx.o(i.USBD_EndpointTransfer) refers to otg_lpc17xx.o(.data) for usb_state
    usbd_lpc17xx.o(i.USBD_EndpointTransfer) refers to usbd_lpc17xx.o(.data) for .data
    usbd_lpc17xx.o(i.USBD_EndpointTransferAbort) refers to usbd_lpc17xx.o(i.check_and_set_var) for check_and_set_var
    usbd_lpc17xx.o(i.USBD_EndpointTransferAbort) refers to usbd_lpc17xx.o(i.__NVIC_DisableIRQ) for __NVIC_DisableIRQ
    usbd_lpc17xx.o(i.USBD_EndpointTransferAbort) refers to usbd_lpc17xx.o(i.USBD_HW_WriteEP) for USBD_HW_WriteEP
    usbd_lpc17xx.o(i.USBD_EndpointTransferAbort) refers to usbd_lpc17xx.o(i.__NVIC_EnableIRQ) for __NVIC_EnableIRQ
    usbd_lpc17xx.o(i.USBD_EndpointTransferAbort) refers to otg_lpc17xx.o(.data) for usb_state
    usbd_lpc17xx.o(i.USBD_EndpointTransferAbort) refers to usbd_lpc17xx.o(.data) for .data
    usbd_lpc17xx.o(i.USBD_EndpointTransferAbort) refers to usbd_lpc17xx.o(.bss) for .bss
    usbd_lpc17xx.o(i.USBD_EndpointTransferGetResult) refers to usbd_lpc17xx.o(.bss) for .bss
    usbd_lpc17xx.o(i.USBD_EndpointUnconfigure) refers to usbd_lpc17xx.o(i.check_and_set_var) for check_and_set_var
    usbd_lpc17xx.o(i.USBD_EndpointUnconfigure) refers to usbd_lpc17xx.o(i.__NVIC_DisableIRQ) for __NVIC_DisableIRQ
    usbd_lpc17xx.o(i.USBD_EndpointUnconfigure) refers to rt_memclr_w.o(.text) for __aeabi_memclr4
    usbd_lpc17xx.o(i.USBD_EndpointUnconfigure) refers to usbd_lpc17xx.o(i.__NVIC_EnableIRQ) for __NVIC_EnableIRQ
    usbd_lpc17xx.o(i.USBD_EndpointUnconfigure) refers to usbd_lpc17xx.o(.bss) for .bss
    usbd_lpc17xx.o(i.USBD_EndpointUnconfigure) refers to otg_lpc17xx.o(.data) for usb_state
    usbd_lpc17xx.o(i.USBD_EndpointUnconfigure) refers to usbd_lpc17xx.o(.data) for .data
    usbd_lpc17xx.o(i.USBD_GetCapabilities) refers to usbd_lpc17xx.o(.constdata) for .constdata
    usbd_lpc17xx.o(i.USBD_GetFrameNumber) refers to usbd_lpc17xx.o(i.check_and_set_var) for check_and_set_var
    usbd_lpc17xx.o(i.USBD_GetFrameNumber) refers to usbd_lpc17xx.o(i.__NVIC_DisableIRQ) for __NVIC_DisableIRQ
    usbd_lpc17xx.o(i.USBD_GetFrameNumber) refers to usbd_lpc17xx.o(i.SIE_WrCmd) for SIE_WrCmd
    usbd_lpc17xx.o(i.USBD_GetFrameNumber) refers to usbd_lpc17xx.o(i.SIE_RdCmdData) for SIE_RdCmdData
    usbd_lpc17xx.o(i.USBD_GetFrameNumber) refers to usbd_lpc17xx.o(i.__NVIC_EnableIRQ) for __NVIC_EnableIRQ
    usbd_lpc17xx.o(i.USBD_GetFrameNumber) refers to otg_lpc17xx.o(.data) for usb_state
    usbd_lpc17xx.o(i.USBD_GetFrameNumber) refers to usbd_lpc17xx.o(.data) for .data
    usbd_lpc17xx.o(i.USBD_GetVersion) refers to usbd_lpc17xx.o(.constdata) for .constdata
    usbd_lpc17xx.o(i.USBD_HW_ReadEP) refers to usbd_lpc17xx.o(i.SIE_EP_WrCmd) for SIE_EP_WrCmd
    usbd_lpc17xx.o(i.USBD_HW_ReadEP) refers to usbd_lpc17xx.o(.bss) for .bss
    usbd_lpc17xx.o(i.USBD_HW_WriteEP) refers to usbd_lpc17xx.o(i.SIE_EP_WrCmd) for SIE_EP_WrCmd
    usbd_lpc17xx.o(i.USBD_HW_WriteEP) refers to usbd_lpc17xx.o(.bss) for .bss
    usbd_lpc17xx.o(i.USBD_IRQ) refers to usbd_lpc17xx.o(i.SIE_WrCmd) for SIE_WrCmd
    usbd_lpc17xx.o(i.USBD_IRQ) refers to usbd_lpc17xx.o(i.SIE_RdCmdData) for SIE_RdCmdData
    usbd_lpc17xx.o(i.USBD_IRQ) refers to rt_memclr_w.o(.text) for __aeabi_memclr4
    usbd_lpc17xx.o(i.USBD_IRQ) refers to usbd_lpc17xx.o(i.USBD_EndpointConfigure) for USBD_EndpointConfigure
    usbd_lpc17xx.o(i.USBD_IRQ) refers to usbd_lpc17xx.o(i.USBD_HW_ReadEP) for USBD_HW_ReadEP
    usbd_lpc17xx.o(i.USBD_IRQ) refers to usbd_lpc17xx.o(i.USBD_HW_WriteEP) for USBD_HW_WriteEP
    usbd_lpc17xx.o(i.USBD_IRQ) refers to usbd_lpc17xx.o(.data) for .data
    usbd_lpc17xx.o(i.USBD_IRQ) refers to usbd_lpc17xx.o(.bss) for .bss
    usbd_lpc17xx.o(i.USBD_Initialize) refers to otg_lpc17xx.o(i.USB_PinsConfigure) for USB_PinsConfigure
    usbd_lpc17xx.o(i.USBD_Initialize) refers to otg_lpc17xx.o(.data) for usb_state
    usbd_lpc17xx.o(i.USBD_Initialize) refers to usbd_lpc17xx.o(.data) for .data
    usbd_lpc17xx.o(i.USBD_Initialize) refers to otg_lpc17xx.o(.data) for usb_role
    usbd_lpc17xx.o(i.USBD_PowerControl) refers to usbd_lpc17xx.o(i.__NVIC_DisableIRQ) for __NVIC_DisableIRQ
    usbd_lpc17xx.o(i.USBD_PowerControl) refers to usbd_lpc17xx.o(i.__NVIC_EnableIRQ) for __NVIC_EnableIRQ
    usbd_lpc17xx.o(i.USBD_PowerControl) refers to otg_lpc17xx.o(.data) for usb_state
    usbd_lpc17xx.o(i.USBD_PowerControl) refers to usbd_lpc17xx.o(.data) for .data
    usbd_lpc17xx.o(i.USBD_ReadSetupPacket) refers to usbd_lpc17xx.o(i.check_and_set_var) for check_and_set_var
    usbd_lpc17xx.o(i.USBD_ReadSetupPacket) refers to usbd_lpc17xx.o(i.__NVIC_DisableIRQ) for __NVIC_DisableIRQ
    usbd_lpc17xx.o(i.USBD_ReadSetupPacket) refers to usbd_lpc17xx.o(i.USBD_HW_ReadEP) for USBD_HW_ReadEP
    usbd_lpc17xx.o(i.USBD_ReadSetupPacket) refers to usbd_lpc17xx.o(i.__NVIC_EnableIRQ) for __NVIC_EnableIRQ
    usbd_lpc17xx.o(i.USBD_ReadSetupPacket) refers to otg_lpc17xx.o(.data) for usb_state
    usbd_lpc17xx.o(i.USBD_ReadSetupPacket) refers to usbd_lpc17xx.o(.data) for .data
    usbd_lpc17xx.o(i.USBD_Uninitialize) refers to otg_lpc17xx.o(i.USB_PinsUnconfigure) for USB_PinsUnconfigure
    usbd_lpc17xx.o(i.USBD_Uninitialize) refers to otg_lpc17xx.o(.data) for usb_role
    usbd_lpc17xx.o(i.USBD_Uninitialize) refers to otg_lpc17xx.o(.data) for usb_state
    usbd_lpc17xx.o(.constdata) refers to usbd_lpc17xx.o(i.USBD_GetVersion) for USBD_GetVersion
    usbd_lpc17xx.o(.constdata) refers to usbd_lpc17xx.o(i.USBD_GetCapabilities) for USBD_GetCapabilities
    usbd_lpc17xx.o(.constdata) refers to usbd_lpc17xx.o(i.USBD_Initialize) for USBD_Initialize
    usbd_lpc17xx.o(.constdata) refers to usbd_lpc17xx.o(i.USBD_Uninitialize) for USBD_Uninitialize
    usbd_lpc17xx.o(.constdata) refers to usbd_lpc17xx.o(i.USBD_PowerControl) for USBD_PowerControl
    usbd_lpc17xx.o(.constdata) refers to usbd_lpc17xx.o(i.USBD_DeviceConnect) for USBD_DeviceConnect
    usbd_lpc17xx.o(.constdata) refers to usbd_lpc17xx.o(i.USBD_DeviceDisconnect) for USBD_DeviceDisconnect
    usbd_lpc17xx.o(.constdata) refers to usbd_lpc17xx.o(i.USBD_DeviceGetState) for USBD_DeviceGetState
    usbd_lpc17xx.o(.constdata) refers to usbd_lpc17xx.o(i.USBD_DeviceRemoteWakeup) for USBD_DeviceRemoteWakeup
    usbd_lpc17xx.o(.constdata) refers to usbd_lpc17xx.o(i.USBD_DeviceSetAddress) for USBD_DeviceSetAddress
    usbd_lpc17xx.o(.constdata) refers to usbd_lpc17xx.o(i.USBD_ReadSetupPacket) for USBD_ReadSetupPacket
    usbd_lpc17xx.o(.constdata) refers to usbd_lpc17xx.o(i.USBD_EndpointConfigure) for USBD_EndpointConfigure
    usbd_lpc17xx.o(.constdata) refers to usbd_lpc17xx.o(i.USBD_EndpointUnconfigure) for USBD_EndpointUnconfigure
    usbd_lpc17xx.o(.constdata) refers to usbd_lpc17xx.o(i.USBD_EndpointStall) for USBD_EndpointStall
    usbd_lpc17xx.o(.constdata) refers to usbd_lpc17xx.o(i.USBD_EndpointTransfer) for USBD_EndpointTransfer
    usbd_lpc17xx.o(.constdata) refers to usbd_lpc17xx.o(i.USBD_EndpointTransferGetResult) for USBD_EndpointTransferGetResult
    usbd_lpc17xx.o(.constdata) refers to usbd_lpc17xx.o(i.USBD_EndpointTransferAbort) for USBD_EndpointTransferAbort
    usbd_lpc17xx.o(.constdata) refers to usbd_lpc17xx.o(i.USBD_GetFrameNumber) for USBD_GetFrameNumber
    gpdma_lpc17xx.o(i.Clear_Channel_active_flag) refers to gpdma_lpc17xx.o(.data) for .data
    gpdma_lpc17xx.o(i.DMA_IRQHandler) refers to gpdma_lpc17xx.o(i.Clear_Channel_active_flag) for Clear_Channel_active_flag
    gpdma_lpc17xx.o(i.DMA_IRQHandler) refers to gpdma_lpc17xx.o(.bss) for .bss
    gpdma_lpc17xx.o(i.GPDMA_ChannelConfigure) refers to gpdma_lpc17xx.o(i.Set_Channel_active_flag) for Set_Channel_active_flag
    gpdma_lpc17xx.o(i.GPDMA_ChannelConfigure) refers to gpdma_lpc17xx.o(i.Clear_Channel_active_flag) for Clear_Channel_active_flag
    gpdma_lpc17xx.o(i.GPDMA_ChannelConfigure) refers to gpdma_lpc17xx.o(.bss) for .bss
    gpdma_lpc17xx.o(i.GPDMA_ChannelDisable) refers to gpdma_lpc17xx.o(i.Clear_Channel_active_flag) for Clear_Channel_active_flag
    gpdma_lpc17xx.o(i.GPDMA_ChannelEnable) refers to gpdma_lpc17xx.o(i.Set_Channel_active_flag) for Set_Channel_active_flag
    gpdma_lpc17xx.o(i.GPDMA_ChannelGetCount) refers to gpdma_lpc17xx.o(.bss) for .bss
    gpdma_lpc17xx.o(i.GPDMA_ChannelGetStatus) refers to gpdma_lpc17xx.o(.data) for .data
    gpdma_lpc17xx.o(i.GPDMA_Initialize) refers to gpdma_lpc17xx.o(i.__NVIC_ClearPendingIRQ) for __NVIC_ClearPendingIRQ
    gpdma_lpc17xx.o(i.GPDMA_Initialize) refers to gpdma_lpc17xx.o(.data) for .data
    gpdma_lpc17xx.o(i.GPDMA_Initialize) refers to gpdma_lpc17xx.o(.bss) for .bss
    gpdma_lpc17xx.o(i.GPDMA_Uninitialize) refers to gpdma_lpc17xx.o(i.__NVIC_ClearPendingIRQ) for __NVIC_ClearPendingIRQ
    gpdma_lpc17xx.o(i.GPDMA_Uninitialize) refers to gpdma_lpc17xx.o(.data) for .data
    gpdma_lpc17xx.o(i.Set_Channel_active_flag) refers to gpdma_lpc17xx.o(.data) for .data
    startup_lpc17xx.o(STACK) refers (Special) to heapauxi.o(.text) for __use_two_region_memory
    startup_lpc17xx.o(HEAP) refers (Special) to heapauxi.o(.text) for __use_two_region_memory
    startup_lpc17xx.o(RESET) refers (Special) to heapauxi.o(.text) for __use_two_region_memory
    startup_lpc17xx.o(RESET) refers to startup_lpc17xx.o(STACK) for __initial_sp
    startup_lpc17xx.o(RESET) refers to startup_lpc17xx.o(.text) for Reset_Handler
    startup_lpc17xx.o(RESET) refers to hal_cm3.o(.emb_text) for SVC_Handler
    startup_lpc17xx.o(RESET) refers to virtualcom.o(i.TIMER0_IRQHandler) for TIMER0_IRQHandler
    startup_lpc17xx.o(RESET) refers to uart_lpc17xx.o(i.UART1_IRQHandler) for UART1_IRQHandler
    startup_lpc17xx.o(RESET) refers to ssp_lpc17xx.o(i.SSP1_IRQHandler) for SSP1_IRQHandler
    startup_lpc17xx.o(RESET) refers to virtualcom.o(i.ADC_IRQHandler) for ADC_IRQHandler
    startup_lpc17xx.o(RESET) refers to otg_lpc17xx.o(i.USB_IRQHandler) for USB_IRQHandler
    startup_lpc17xx.o(RESET) refers to gpdma_lpc17xx.o(i.DMA_IRQHandler) for DMA_IRQHandler
    startup_lpc17xx.o(.ARM.__at_0x02FC) refers (Special) to heapauxi.o(.text) for __use_two_region_memory
    startup_lpc17xx.o(.text) refers (Special) to heapauxi.o(.text) for __use_two_region_memory
    startup_lpc17xx.o(.text) refers to system_lpc17xx.o(i.SystemInit) for SystemInit
    startup_lpc17xx.o(.text) refers to __main.o(!!!main) for __main
    startup_lpc17xx.o(.text) refers to startup_lpc17xx.o(HEAP) for Heap_Mem
    startup_lpc17xx.o(.text) refers to startup_lpc17xx.o(STACK) for Stack_Mem
    system_lpc17xx.o(i.SystemCoreClockUpdate) refers to lludivv7m.o(.text) for __aeabi_uldivmod
    system_lpc17xx.o(i.SystemCoreClockUpdate) refers to system_lpc17xx.o(.data) for .data
    usbd_config_0.o(i.USBD0_SignalDeviceEvent) refers to usbd_lib_drv.o(i.USBD_SignalDeviceEvent) for USBD_SignalDeviceEvent
    usbd_config_0.o(i.USBD0_SignalEndpointEvent) refers to usbd_lib_drv.o(i.USBD_SignalEndpointEvent) for USBD_SignalEndpointEvent
    usbd_config_0.o(i.USBD_ClassInitialize) refers to usbd_lib_cdc.o(i.USBD_CDC_Initialize) for USBD_CDC_Initialize
    usbd_config_0.o(i.USBD_ClassInitialize) refers to usbd_config_0.o(.constdata) for .constdata
    usbd_config_0.o(i.USBD_ClassUninitialize) refers to usbd_lib_cdc.o(i.USBD_CDC_Uninitialize) for USBD_CDC_Uninitialize
    usbd_config_0.o(i.USBD_ClassUninitialize) refers to usbd_config_0.o(.constdata) for .constdata
    usbd_config_0.o(i.USBD_Delay) refers to rt_cmsis.o(i.osDelay) for osDelay
    usbd_config_0.o(i.USBD_Device0_Reset) refers to usbd_config_0.o(i.USBD_Device0_EventReset) for USBD_Device0_EventReset
    usbd_config_0.o(i.USBD_EndpointStart) refers to usbd_lib_cdc.o(i.USBD_CDC_EndpointStart) for USBD_CDC_EndpointStart
    usbd_config_0.o(i.USBD_EndpointStart) refers to usbd_config_0.o(.constdata) for .constdata
    usbd_config_0.o(i.USBD_EndpointStop) refers to usbd_lib_cdc.o(i.USBD_CDC_EndpointStop) for USBD_CDC_EndpointStop
    usbd_config_0.o(i.USBD_EndpointStop) refers to usbd_config_0.o(.constdata) for .constdata
    usbd_config_0.o(i.USBD_Reset) refers to usbd_lib_cdc.o(i.USBD_CDC_Reset) for USBD_CDC_Reset
    usbd_config_0.o(i.USBD_Reset) refers to usbd_config_0.o(.constdata) for .constdata
    usbd_config_0.o(i.USBD_SemaphoreAcquire) refers to rt_cmsis.o(i.osSemaphoreWait) for osSemaphoreWait
    usbd_config_0.o(i.USBD_SemaphoreCreate) refers to rt_cmsis.o(i.osSemaphoreCreate) for osSemaphoreCreate
    usbd_config_0.o(i.USBD_SemaphoreCreate) refers to usbd_config_0.o(.constdata) for .constdata
    usbd_config_0.o(i.USBD_SemaphoreDelete) refers to rt_cmsis.o(i.osSemaphoreDelete) for osSemaphoreDelete
    usbd_config_0.o(i.USBD_SemaphoreRelease) refers to rt_cmsis.o(i.osSemaphoreRelease) for osSemaphoreRelease
    usbd_config_0.o(i.USBD_ThreadCreate) refers to rt_cmsis.o(i.osThreadCreate) for osThreadCreate
    usbd_config_0.o(i.USBD_ThreadCreate) refers to usbd_config_0.o(.constdata) for .constdata
    usbd_config_0.o(i.USBD_ThreadFlagsSet) refers to rt_cmsis.o(i.osSignalSet) for osSignalSet
    usbd_config_0.o(i.USBD_ThreadFlagsWait) refers to rt_cmsis.o(i.osSignalWait) for osSignalWait
    usbd_config_0.o(i.USBD_ThreadTerminate) refers to rt_cmsis.o(i.osThreadTerminate) for osThreadTerminate
    usbd_config_0.o(i.USBD_TimerDelete) refers to rt_cmsis.o(i.osTimerDelete) for osTimerDelete
    usbd_config_0.o(i.USBD_TimerStart) refers to rt_cmsis.o(i.osTimerStart) for osTimerStart
    usbd_config_0.o(i.USBD_TimerStop) refers to rt_cmsis.o(i.osTimerStop) for osTimerStop
    usbd_config_0.o(.constdata) refers to usbd_lpc17xx.o(.constdata) for Driver_USBD0
    usbd_config_0.o(.constdata) refers to usbd_config_0.o(.data) for usbd0_alt_setting
    usbd_config_0.o(.constdata) refers to usbd_config_0.o(.bss) for usbd0_ep0_buf
    usbd_config_0.o(.constdata) refers to usbd_config_0.o(.bss) for usbd0_data
    usbd_config_0.o(.constdata) refers to usbd_lib_core.o(i.USBD0_Core_Thread) for USBD0_Core_Thread
    usbd_config_0.o(.constdata) refers to usbd_config_0.o(.constdata) for usbd0_dev
    usbd_config_0.o(.constdata) refers to usbd_config_0.o(.bss) for usbd_cdc0_send_buf
    usbd_config_0.o(.constdata) refers to usbd_config_0.o(.bss) for usbd_cdc0_receive_buf
    usbd_config_0.o(.constdata) refers to usbd_config_0.o(.bss) for usbd_cdc0_notify_buf
    usbd_config_0.o(.constdata) refers to usbd_config_0.o(.bss) for usbd_cdc0_send_mps_buf
    usbd_config_0.o(.constdata) refers to usbd_config_0.o(.bss) for usbd_cdc0_receive_mps_buf
    usbd_config_0.o(.constdata) refers to usbd_config_0.o(.bss) for usbd_cdc_data
    usbd_config_0.o(.constdata) refers to usbd_config_0.o(.constdata) for usbd_cdc
    usbd_config_0.o(.constdata) refers to usbd_config_0.o(.constdata) for os_thread_def_USBD0_Core_Thread
    usbd_config_0.o(.constdata) refers to usbd_config_0.o(.constdata) for os_thread_def_USBD_CDC0_Int_Thread
    usbd_config_0.o(.constdata) refers to usbd_config_0.o(.constdata) for os_thread_def_USBD_CDC0_Bulk_Thread
    usbd_config_0.o(.constdata) refers to usbd_config_0.o(.constdata) for os_semaphore_def_usbd0_driver_semaphore
    usbd_config_0.o(.constdata) refers to usbd_config_0.o(.constdata) for os_semaphore_def_usbd0_driver_ep0out_semaphore
    usbd_config_0.o(.constdata) refers to usbd_config_0.o(.constdata) for os_semaphore_def_usbd0_driver_ep1out_semaphore
    usbd_config_0.o(.constdata) refers to usbd_config_0.o(.constdata) for os_semaphore_def_usbd0_driver_ep2out_semaphore
    usbd_config_0.o(.constdata) refers to usbd_config_0.o(.constdata) for os_semaphore_def_usbd0_driver_ep0in_semaphore
    usbd_config_0.o(.constdata) refers to usbd_config_0.o(.constdata) for os_semaphore_def_usbd0_driver_ep1in_semaphore
    usbd_config_0.o(.constdata) refers to usbd_config_0.o(.constdata) for os_semaphore_def_usbd0_driver_ep2in_semaphore
    usbd_config_0.o(.constdata) refers to usbd_lib_cdc.o(i.USBD_CDC0_Int_Thread) for USBD_CDC0_Int_Thread
    usbd_config_0.o(.constdata) refers to usbd_lib_cdc.o(i.USBD_CDC0_Bulk_Thread) for USBD_CDC0_Bulk_Thread
    usbd_config_0.o(.constdata) refers to usbd_config_0.o(.data) for os_semaphore_cb_usbd0_driver_semaphore
    usbd_config_0.o(.constdata) refers to usbd_config_0.o(.data) for os_semaphore_cb_usbd0_driver_ep0out_semaphore
    usbd_config_0.o(.constdata) refers to usbd_config_0.o(.data) for os_semaphore_cb_usbd0_driver_ep0in_semaphore
    usbd_config_0.o(.constdata) refers to usbd_config_0.o(.data) for os_semaphore_cb_usbd0_driver_ep1out_semaphore
    usbd_config_0.o(.constdata) refers to usbd_config_0.o(.data) for os_semaphore_cb_usbd0_driver_ep1in_semaphore
    usbd_config_0.o(.constdata) refers to usbd_config_0.o(.data) for os_semaphore_cb_usbd0_driver_ep2out_semaphore
    usbd_config_0.o(.constdata) refers to usbd_config_0.o(.data) for os_semaphore_cb_usbd0_driver_ep2in_semaphore
    usbd_config_0.o(.constdata) refers to usbd_config_0.o(i.USBD0_SignalDeviceEvent) for USBD0_SignalDeviceEvent
    usbd_config_0.o(.constdata) refers to usbd_config_0.o(i.USBD0_SignalEndpointEvent) for USBD0_SignalEndpointEvent
    usbd_config_0.o(.constdata) refers to usbd_user_cdc_acm_uart_0.o(i.USBD_CDC0_ACM_Initialize) for USBD_CDC0_ACM_Initialize
    usbd_config_0.o(.constdata) refers to usbd_user_cdc_acm_uart_0.o(i.USBD_CDC0_ACM_Uninitialize) for USBD_CDC0_ACM_Uninitialize
    usbd_config_0.o(.constdata) refers to usbd_user_cdc_acm_uart_0.o(i.USBD_CDC0_ACM_Reset) for USBD_CDC0_ACM_Reset
    usbd_config_0.o(.constdata) refers to usbd_user_cdc_acm_uart_0.o(i.USBD_CDC0_ACM_SetLineCoding) for USBD_CDC0_ACM_SetLineCoding
    usbd_config_0.o(.constdata) refers to usbd_user_cdc_acm_uart_0.o(i.USBD_CDC0_ACM_GetLineCoding) for USBD_CDC0_ACM_GetLineCoding
    usbd_config_0.o(.constdata) refers to usbd_user_cdc_acm_uart_0.o(i.USBD_CDC0_ACM_SetControlLineState) for USBD_CDC0_ACM_SetControlLineState
    usbd_config_0.o(.constdata) refers to usbd_user_cdc_acm_uart_0.o(i.USBD_CDC0_ACM_DataReceived) for USBD_CDC0_ACM_DataReceived
    usbd_config_0.o(.constdata) refers to usbd_config_0.o(i.USBD_CDC0_ACM_DataSent) for USBD_CDC0_ACM_DataSent
    usbd_config_0.o(.constdata) refers to usbd_config_0.o(i.USBD_CDC0_NCM_Initialize) for USBD_CDC0_NCM_Initialize
    usbd_config_0.o(.constdata) refers to usbd_config_0.o(i.USBD_CDC0_NCM_Uninitialize) for USBD_CDC0_NCM_Uninitialize
    usbd_config_0.o(.constdata) refers to usbd_config_0.o(i.USBD_CDC0_NCM_Reset) for USBD_CDC0_NCM_Reset
    usbd_config_0.o(.constdata) refers to usbd_config_0.o(i.USBD_CDC0_NCM_Start) for USBD_CDC0_NCM_Start
    usbd_config_0.o(.constdata) refers to usbd_config_0.o(i.USBD_CDC0_NCM_Stop) for USBD_CDC0_NCM_Stop
    usbd_config_0.o(.constdata) refers to usbd_config_0.o(i.USBD_CDC0_NCM_SetEthernetMulticastFilters) for USBD_CDC0_NCM_SetEthernetMulticastFilters
    usbd_config_0.o(.constdata) refers to usbd_config_0.o(i.USBD_CDC0_NCM_SetEthernetPowerManagementPatternFilter) for USBD_CDC0_NCM_SetEthernetPowerManagementPatternFilter
    usbd_config_0.o(.constdata) refers to usbd_config_0.o(i.USBD_CDC0_NCM_GetEthernetPowerManagementPatternFilter) for USBD_CDC0_NCM_GetEthernetPowerManagementPatternFilter
    usbd_config_0.o(.constdata) refers to usbd_config_0.o(i.USBD_CDC0_NCM_SetEthernetPacketFilter) for USBD_CDC0_NCM_SetEthernetPacketFilter
    usbd_config_0.o(.constdata) refers to usbd_config_0.o(i.USBD_CDC0_NCM_GetEthernetStatistic) for USBD_CDC0_NCM_GetEthernetStatistic
    usbd_config_0.o(.constdata) refers to usbd_config_0.o(i.USBD_CDC0_NCM_GetNtbParameters) for USBD_CDC0_NCM_GetNtbParameters
    usbd_config_0.o(.constdata) refers to usbd_config_0.o(i.USBD_CDC0_NCM_GetNetAddress) for USBD_CDC0_NCM_GetNetAddress
    usbd_config_0.o(.constdata) refers to usbd_config_0.o(i.USBD_CDC0_NCM_SetNetAddress) for USBD_CDC0_NCM_SetNetAddress
    usbd_config_0.o(.constdata) refers to usbd_config_0.o(i.USBD_CDC0_NCM_GetNtbFormat) for USBD_CDC0_NCM_GetNtbFormat
    usbd_config_0.o(.constdata) refers to usbd_config_0.o(i.USBD_CDC0_NCM_SetNtbFormat) for USBD_CDC0_NCM_SetNtbFormat
    usbd_config_0.o(.constdata) refers to usbd_config_0.o(i.USBD_CDC0_NCM_GetNtbInputSize) for USBD_CDC0_NCM_GetNtbInputSize
    usbd_config_0.o(.constdata) refers to usbd_config_0.o(i.USBD_CDC0_NCM_SetNtbInputSize) for USBD_CDC0_NCM_SetNtbInputSize
    usbd_config_0.o(.constdata) refers to usbd_config_0.o(i.USBD_CDC0_NCM_GetMaxDatagramSize) for USBD_CDC0_NCM_GetMaxDatagramSize
    usbd_config_0.o(.constdata) refers to usbd_config_0.o(i.USBD_CDC0_NCM_SetMaxDatagramSize) for USBD_CDC0_NCM_SetMaxDatagramSize
    usbd_config_0.o(.constdata) refers to usbd_config_0.o(i.USBD_CDC0_NCM_GetCrcMode) for USBD_CDC0_NCM_GetCrcMode
    usbd_config_0.o(.constdata) refers to usbd_config_0.o(i.USBD_CDC0_NCM_SetCrcMode) for USBD_CDC0_NCM_SetCrcMode
    usbd_config_0.o(.constdata) refers to usbd_config_0.o(i.USBD_CDC0_NCM_NTB_IN_Sent) for USBD_CDC0_NCM_NTB_IN_Sent
    usbd_config_0.o(.constdata) refers to usbd_config_0.o(i.USBD_CDC0_NCM_NTB_OUT_Received) for USBD_CDC0_NCM_NTB_OUT_Received
    usbd_config_0.o(.constdata) refers to usbd_config_0.o(i.USBD_Device0_Initialize) for USBD_Device0_Initialize
    usbd_config_0.o(.constdata) refers to usbd_config_0.o(i.USBD_Device0_Uninitialize) for USBD_Device0_Uninitialize
    usbd_config_0.o(.constdata) refers to usbd_config_0.o(i.USBD_Device0_VbusChanged) for USBD_Device0_VbusChanged
    usbd_config_0.o(.constdata) refers to usbd_config_0.o(i.USBD_Device0_Reset) for USBD_Device0_Reset
    usbd_config_0.o(.constdata) refers to usbd_config_0.o(i.USBD_Device0_HighSpeedActivated) for USBD_Device0_HighSpeedActivated
    usbd_config_0.o(.constdata) refers to usbd_config_0.o(i.USBD_Device0_Suspended) for USBD_Device0_Suspended
    usbd_config_0.o(.constdata) refers to usbd_config_0.o(i.USBD_Device0_Resumed) for USBD_Device0_Resumed
    usbd_config_0.o(.constdata) refers to usbd_config_0.o(i.USBD_Device0_ConfigurationChanged) for USBD_Device0_ConfigurationChanged
    usbd_config_0.o(.constdata) refers to usbd_config_0.o(i.USBD_Device0_EnableRemoteWakeup) for USBD_Device0_EnableRemoteWakeup
    usbd_config_0.o(.constdata) refers to usbd_config_0.o(i.USBD_Device0_DisableRemoteWakeup) for USBD_Device0_DisableRemoteWakeup
    usbd_config_0.o(.constdata) refers to usbd_config_0.o(i.USBD_Device0_Endpoint0_SetupPacketReceived) for USBD_Device0_Endpoint0_SetupPacketReceived
    usbd_config_0.o(.constdata) refers to usbd_config_0.o(i.USBD_Device0_Endpoint0_SetupPacketProcessed) for USBD_Device0_Endpoint0_SetupPacketProcessed
    usbd_config_0.o(.constdata) refers to usbd_config_0.o(i.USBD_Device0_Endpoint0_OutDataReceived) for USBD_Device0_Endpoint0_OutDataReceived
    usbd_config_0.o(.constdata) refers to usbd_config_0.o(i.USBD_Device0_Endpoint0_InDataSent) for USBD_Device0_Endpoint0_InDataSent
    usbd_config_0.o(.data) refers to usbd_config_0.o(.data) for usbd_core_thread_id
    usbd_config_0.o(.data) refers to usbd_config_0.o(.data) for usbd_cdc_int_thread_id
    usbd_config_0.o(.data) refers to usbd_config_0.o(.data) for usbd_cdc_bulk_thread_id
    usbd_config_0.o(.data) refers to usbd_config_0.o(.constdata) for usbd0_ep0_descriptor
    usbd_config_0.o(.data) refers to usbd_config_0.o(.constdata) for usbd0_device_descriptor
    usbd_config_0.o(.data) refers to usbd_config_0.o(.constdata) for usbd0_device_qualifier_fs
    usbd_config_0.o(.data) refers to usbd_config_0.o(.constdata) for usbd0_device_qualifier_hs
    usbd_config_0.o(.data) refers to usbd_config_0.o(.constdata) for usbd0_config_descriptor_fs
    usbd_config_0.o(.data) refers to usbd_config_0.o(.constdata) for usbd0_config_descriptor_hs
    usbd_config_0.o(.data) refers to usbd_config_0.o(.constdata) for usbd0_other_speed_config_descriptor_fs
    usbd_config_0.o(.data) refers to usbd_config_0.o(.constdata) for usbd0_other_speed_config_descriptor_hs
    usbd_config_0.o(.data) refers to usbd_config_0.o(.constdata) for usbd0_string_descriptor
    usbd_config_0.o(.data) refers to usbd_config_0.o(.bss) for usbd0_ser_num_string_descriptor
    usbd_config_0.o(.data) refers to usbd_config_0.o(.data) for usbd0_desc
    rt_cmsis.o(i.isrMessageGet) refers to rt_mailbox.o(i.isr_mbx_receive) for isr_mbx_receive
    rt_cmsis.o(i.isrMessagePut) refers to rt_mailbox.o(i.rt_mbx_check) for rt_mbx_check
    rt_cmsis.o(i.isrMessagePut) refers to rt_mailbox.o(i.isr_mbx_send) for isr_mbx_send
    rt_cmsis.o(i.isrSemaphoreRelease) refers to rt_cmsis.o(i.rt_id2obj) for rt_id2obj
    rt_cmsis.o(i.isrSemaphoreRelease) refers to rt_semaphore.o(i.isr_sem_send) for isr_sem_send
    rt_cmsis.o(i.isrSignalSet) refers to rt_cmsis.o(i.rt_tid2ptcb) for rt_tid2ptcb
    rt_cmsis.o(i.isrSignalSet) refers to rt_event.o(i.isr_evt_set) for isr_evt_set
    rt_cmsis.o(i.osDelay) refers to rt_cmsis.o(i.svcDelay) for svcDelay
    rt_cmsis.o(i.osKernelInitialize) refers to rt_cmsis.o(i.svcKernelInitialize) for svcKernelInitialize
    rt_cmsis.o(i.osKernelRunning) refers to rt_cmsis.o(i.svcKernelRunning) for svcKernelRunning
    rt_cmsis.o(i.osKernelRunning) refers to rt_cmsis.o(.data) for .data
    rt_cmsis.o(i.osKernelStart) refers to rtx_conf_cm.o(.constdata) for os_flags
    rt_cmsis.o(i.osKernelStart) refers to rt_cmsis.o(i.svcKernelStart) for svcKernelStart
    rt_cmsis.o(i.osKernelSysTick) refers to rt_cmsis.o(i.svcKernelSysTick) for svcKernelSysTick
    rt_cmsis.o(i.osMailAlloc) refers to rt_cmsis.o(i.sysMailAlloc) for sysMailAlloc
    rt_cmsis.o(i.osMailCAlloc) refers to rt_cmsis.o(i.sysMailAlloc) for sysMailAlloc
    rt_cmsis.o(i.osMailCAlloc) refers to rt_cmsis.o(i.rt_clr_box) for rt_clr_box
    rt_cmsis.o(i.osMailCreate) refers to rt_cmsis.o(i.svcMailCreate) for svcMailCreate
    rt_cmsis.o(i.osMailCreate) refers to rt_cmsis.o(.data) for .data
    rt_cmsis.o(i.osMailFree) refers to rt_cmsis.o(i.sysMailFree) for sysMailFree
    rt_cmsis.o(i.osMailGet) refers to rt_cmsis.o(i.osMessageGet) for osMessageGet
    rt_cmsis.o(i.osMailPut) refers to rt_cmsis.o(i.osMessagePut) for osMessagePut
    rt_cmsis.o(i.osMessageCreate) refers to rt_cmsis.o(i.svcMessageCreate) for svcMessageCreate
    rt_cmsis.o(i.osMessageCreate) refers to rt_cmsis.o(.data) for .data
    rt_cmsis.o(i.osMessageGet) refers to rt_cmsis.o(i.isrMessageGet) for isrMessageGet
    rt_cmsis.o(i.osMessageGet) refers to rt_cmsis.o(i.svcMessageGet) for svcMessageGet
    rt_cmsis.o(i.osMessagePut) refers to rt_cmsis.o(i.isrMessagePut) for isrMessagePut
    rt_cmsis.o(i.osMessagePut) refers to rt_cmsis.o(i.svcMessagePut) for svcMessagePut
    rt_cmsis.o(i.osMutexCreate) refers to rt_cmsis.o(i.svcMutexCreate) for svcMutexCreate
    rt_cmsis.o(i.osMutexCreate) refers to rt_cmsis.o(.data) for .data
    rt_cmsis.o(i.osMutexDelete) refers to rt_cmsis.o(i.svcMutexDelete) for svcMutexDelete
    rt_cmsis.o(i.osMutexRelease) refers to rt_cmsis.o(i.svcMutexRelease) for svcMutexRelease
    rt_cmsis.o(i.osMutexWait) refers to rt_cmsis.o(i.svcMutexWait) for svcMutexWait
    rt_cmsis.o(i.osPoolAlloc) refers to rt_cmsis.o(i.sysPoolAlloc) for sysPoolAlloc
    rt_cmsis.o(i.osPoolCAlloc) refers to rt_cmsis.o(i.rt_clr_box) for rt_clr_box
    rt_cmsis.o(i.osPoolCAlloc) refers to rt_cmsis.o(i.sysPoolAlloc) for sysPoolAlloc
    rt_cmsis.o(i.osPoolCreate) refers to rt_cmsis.o(i.svcPoolCreate) for svcPoolCreate
    rt_cmsis.o(i.osPoolCreate) refers to rt_cmsis.o(.data) for .data
    rt_cmsis.o(i.osPoolFree) refers to rt_cmsis.o(i.sysPoolFree) for sysPoolFree
    rt_cmsis.o(i.osSemaphoreCreate) refers to rt_cmsis.o(i.svcSemaphoreCreate) for svcSemaphoreCreate
    rt_cmsis.o(i.osSemaphoreCreate) refers to rt_cmsis.o(.data) for .data
    rt_cmsis.o(i.osSemaphoreDelete) refers to rt_cmsis.o(i.svcSemaphoreDelete) for svcSemaphoreDelete
    rt_cmsis.o(i.osSemaphoreRelease) refers to rt_cmsis.o(i.isrSemaphoreRelease) for isrSemaphoreRelease
    rt_cmsis.o(i.osSemaphoreRelease) refers to rt_cmsis.o(i.svcSemaphoreRelease) for svcSemaphoreRelease
    rt_cmsis.o(i.osSemaphoreWait) refers to rt_cmsis.o(i.svcSemaphoreWait) for svcSemaphoreWait
    rt_cmsis.o(i.osSignalClear) refers to rt_cmsis.o(i.svcSignalClear) for svcSignalClear
    rt_cmsis.o(i.osSignalSet) refers to rt_cmsis.o(i.isrSignalSet) for isrSignalSet
    rt_cmsis.o(i.osSignalSet) refers to rt_cmsis.o(i.svcSignalSet) for svcSignalSet
    rt_cmsis.o(i.osSignalWait) refers to rt_cmsis.o(i.svcSignalWait) for svcSignalWait
    rt_cmsis.o(i.osThreadCreate) refers to rt_cmsis.o(i.svcThreadCreate) for svcThreadCreate
    rt_cmsis.o(i.osThreadCreate) refers to rt_cmsis.o(.data) for .data
    rt_cmsis.o(i.osThreadExit) refers to rt_cmsis.o(i.svcThreadGetId) for svcThreadGetId
    rt_cmsis.o(i.osThreadExit) refers to rt_cmsis.o(i.svcThreadTerminate) for svcThreadTerminate
    rt_cmsis.o(i.osThreadGetId) refers to rt_cmsis.o(i.svcThreadGetId) for svcThreadGetId
    rt_cmsis.o(i.osThreadGetPriority) refers to rt_cmsis.o(i.svcThreadGetPriority) for svcThreadGetPriority
    rt_cmsis.o(i.osThreadSetPriority) refers to rt_cmsis.o(i.svcThreadSetPriority) for svcThreadSetPriority
    rt_cmsis.o(i.osThreadTerminate) refers to rt_cmsis.o(i.svcThreadTerminate) for svcThreadTerminate
    rt_cmsis.o(i.osThreadYield) refers to rt_cmsis.o(i.svcThreadYield) for svcThreadYield
    rt_cmsis.o(i.osTimerCall) refers to rt_cmsis.o(i.svcTimerCall) for svcTimerCall
    rt_cmsis.o(i.osTimerCreate) refers to rt_cmsis.o(i.svcTimerCreate) for svcTimerCreate
    rt_cmsis.o(i.osTimerCreate) refers to rt_cmsis.o(.data) for .data
    rt_cmsis.o(i.osTimerDelete) refers to rt_cmsis.o(i.svcTimerDelete) for svcTimerDelete
    rt_cmsis.o(i.osTimerStart) refers to rt_cmsis.o(i.svcTimerStart) for svcTimerStart
    rt_cmsis.o(i.osTimerStop) refers to rt_cmsis.o(i.svcTimerStop) for svcTimerStop
    rt_cmsis.o(i.osTimerThread) refers to rt_cmsis.o(i.osMessageGet) for osMessageGet
    rt_cmsis.o(i.osTimerThread) refers to rt_cmsis.o(i.osTimerCall) for osTimerCall
    rt_cmsis.o(i.osTimerThread) refers to rtx_conf_cm.o(.data) for osMessageQId_osTimerMessageQ
    rt_cmsis.o(i.os_resume) refers to rt_system.o(i.rt_resume) for rt_resume
    rt_cmsis.o(i.os_suspend) refers to rt_system.o(i.rt_suspend) for rt_suspend
    rt_cmsis.o(i.rt_ms2tick) refers to rtx_conf_cm.o(.constdata) for os_clockrate
    rt_cmsis.o(i.rt_timer_insert) refers to rt_cmsis.o(.data) for .data
    rt_cmsis.o(i.rt_timer_remove) refers to rt_cmsis.o(.data) for .data
    rt_cmsis.o(i.svcDelay) refers to rt_cmsis.o(i.rt_ms2tick) for rt_ms2tick
    rt_cmsis.o(i.svcDelay) refers to rt_time.o(i.rt_dly_wait) for rt_dly_wait
    rt_cmsis.o(i.svcKernelInitialize) refers to rt_memory.o(i.rt_init_mem) for rt_init_mem
    rt_cmsis.o(i.svcKernelInitialize) refers to rt_task.o(i.rt_sys_init) for rt_sys_init
    rt_cmsis.o(i.svcKernelInitialize) refers to rt_cmsis.o(i.svcMessageCreate) for svcMessageCreate
    rt_cmsis.o(i.svcKernelInitialize) refers to rt_cmsis.o(i.svcThreadCreate) for svcThreadCreate
    rt_cmsis.o(i.svcKernelInitialize) refers to rt_cmsis.o(.data) for .data
    rt_cmsis.o(i.svcKernelInitialize) refers to rtx_conf_cm.o(.bss) for os_stack_mem
    rt_cmsis.o(i.svcKernelInitialize) refers to rtx_conf_cm.o(.constdata) for os_stack_sz
    rt_cmsis.o(i.svcKernelInitialize) refers to rt_task.o(.data) for os_tsk
    rt_cmsis.o(i.svcKernelInitialize) refers to rtx_conf_cm.o(.constdata) for os_messageQ_def_osTimerMessageQ
    rt_cmsis.o(i.svcKernelInitialize) refers to rtx_conf_cm.o(.data) for osMessageQId_osTimerMessageQ
    rt_cmsis.o(i.svcKernelInitialize) refers to rtx_conf_cm.o(.constdata) for os_thread_def_osTimerThread
    rt_cmsis.o(i.svcKernelInitialize) refers to rtx_conf_cm.o(.data) for osThreadId_osTimerThread
    rt_cmsis.o(i.svcKernelRunning) refers to rt_cmsis.o(.data) for .data
    rt_cmsis.o(i.svcKernelStart) refers to rt_task.o(i.rt_tsk_prio) for rt_tsk_prio
    rt_cmsis.o(i.svcKernelStart) refers to rt_task.o(i.rt_sys_start) for rt_sys_start
    rt_cmsis.o(i.svcKernelStart) refers to rt_cmsis.o(.data) for .data
    rt_cmsis.o(i.svcKernelStart) refers to rt_task.o(.data) for os_tsk
    rt_cmsis.o(i.svcKernelSysTick) refers to rt_system.o(i.os_tick_val) for os_tick_val
    rt_cmsis.o(i.svcKernelSysTick) refers to rt_system.o(i.os_tick_ovf) for os_tick_ovf
    rt_cmsis.o(i.svcKernelSysTick) refers to rtx_conf_cm.o(.constdata) for os_trv
    rt_cmsis.o(i.svcKernelSysTick) refers to rt_time.o(.data) for os_time
    rt_cmsis.o(i.svcMailCreate) refers to rt_membox.o(i._init_box) for _init_box
    rt_cmsis.o(i.svcMailCreate) refers to rt_mailbox.o(i.rt_mbx_init) for rt_mbx_init
    rt_cmsis.o(i.svcMessageCreate) refers to rt_mailbox.o(i.rt_mbx_init) for rt_mbx_init
    rt_cmsis.o(i.svcMessageGet) refers to rt_cmsis.o(i.rt_ms2tick) for rt_ms2tick
    rt_cmsis.o(i.svcMessageGet) refers to rt_mailbox.o(i.rt_mbx_wait) for rt_mbx_wait
    rt_cmsis.o(i.svcMessagePut) refers to rt_cmsis.o(i.rt_ms2tick) for rt_ms2tick
    rt_cmsis.o(i.svcMessagePut) refers to rt_mailbox.o(i.rt_mbx_send) for rt_mbx_send
    rt_cmsis.o(i.svcMutexCreate) refers to rt_mutex.o(i.rt_mut_init) for rt_mut_init
    rt_cmsis.o(i.svcMutexDelete) refers to rt_cmsis.o(i.rt_id2obj) for rt_id2obj
    rt_cmsis.o(i.svcMutexDelete) refers to rt_mutex.o(i.rt_mut_delete) for rt_mut_delete
    rt_cmsis.o(i.svcMutexRelease) refers to rt_cmsis.o(i.rt_id2obj) for rt_id2obj
    rt_cmsis.o(i.svcMutexRelease) refers to rt_mutex.o(i.rt_mut_release) for rt_mut_release
    rt_cmsis.o(i.svcMutexWait) refers to rt_cmsis.o(i.rt_id2obj) for rt_id2obj
    rt_cmsis.o(i.svcMutexWait) refers to rt_cmsis.o(i.rt_ms2tick) for rt_ms2tick
    rt_cmsis.o(i.svcMutexWait) refers to rt_mutex.o(i.rt_mut_wait) for rt_mut_wait
    rt_cmsis.o(i.svcPoolCreate) refers to rt_membox.o(i._init_box) for _init_box
    rt_cmsis.o(i.svcSemaphoreCreate) refers to rt_semaphore.o(i.rt_sem_init) for rt_sem_init
    rt_cmsis.o(i.svcSemaphoreDelete) refers to rt_cmsis.o(i.rt_id2obj) for rt_id2obj
    rt_cmsis.o(i.svcSemaphoreDelete) refers to rt_semaphore.o(i.rt_sem_delete) for rt_sem_delete
    rt_cmsis.o(i.svcSemaphoreRelease) refers to rt_cmsis.o(i.rt_id2obj) for rt_id2obj
    rt_cmsis.o(i.svcSemaphoreRelease) refers to rt_semaphore.o(i.rt_sem_send) for rt_sem_send
    rt_cmsis.o(i.svcSemaphoreWait) refers to rt_cmsis.o(i.rt_id2obj) for rt_id2obj
    rt_cmsis.o(i.svcSemaphoreWait) refers to rt_cmsis.o(i.rt_ms2tick) for rt_ms2tick
    rt_cmsis.o(i.svcSemaphoreWait) refers to rt_semaphore.o(i.rt_sem_wait) for rt_sem_wait
    rt_cmsis.o(i.svcSignalClear) refers to rt_cmsis.o(i.rt_tid2ptcb) for rt_tid2ptcb
    rt_cmsis.o(i.svcSignalClear) refers to rt_event.o(i.rt_evt_clr) for rt_evt_clr
    rt_cmsis.o(i.svcSignalSet) refers to rt_cmsis.o(i.rt_tid2ptcb) for rt_tid2ptcb
    rt_cmsis.o(i.svcSignalSet) refers to rt_event.o(i.rt_evt_set) for rt_evt_set
    rt_cmsis.o(i.svcSignalWait) refers to rt_cmsis.o(i.rt_ms2tick) for rt_ms2tick
    rt_cmsis.o(i.svcSignalWait) refers to rt_event.o(i.rt_evt_wait) for rt_evt_wait
    rt_cmsis.o(i.svcSignalWait) refers to rt_task.o(.data) for os_tsk
    rt_cmsis.o(i.svcThreadCreate) refers to rt_memory.o(i.rt_alloc_mem) for rt_alloc_mem
    rt_cmsis.o(i.svcThreadCreate) refers to rt_task.o(i.rt_tsk_create) for rt_tsk_create
    rt_cmsis.o(i.svcThreadCreate) refers to rt_memory.o(i.rt_free_mem) for rt_free_mem
    rt_cmsis.o(i.svcThreadCreate) refers to rtx_conf_cm.o(.bss) for os_stack_mem
    rt_cmsis.o(i.svcThreadCreate) refers to rtx_conf_cm.o(.bss) for os_active_TCB
    rt_cmsis.o(i.svcThreadCreate) refers to rt_cmsis.o(i.osThreadExit) for osThreadExit
    rt_cmsis.o(i.svcThreadGetId) refers to rt_task.o(i.rt_tsk_self) for rt_tsk_self
    rt_cmsis.o(i.svcThreadGetId) refers to rtx_conf_cm.o(.bss) for os_active_TCB
    rt_cmsis.o(i.svcThreadGetPriority) refers to rt_cmsis.o(i.rt_tid2ptcb) for rt_tid2ptcb
    rt_cmsis.o(i.svcThreadSetPriority) refers to rt_cmsis.o(i.rt_tid2ptcb) for rt_tid2ptcb
    rt_cmsis.o(i.svcThreadSetPriority) refers to rt_task.o(i.rt_tsk_prio) for rt_tsk_prio
    rt_cmsis.o(i.svcThreadTerminate) refers to rt_cmsis.o(i.rt_tid2ptcb) for rt_tid2ptcb
    rt_cmsis.o(i.svcThreadTerminate) refers to rt_task.o(i.rt_tsk_delete) for rt_tsk_delete
    rt_cmsis.o(i.svcThreadTerminate) refers to rt_memory.o(i.rt_free_mem) for rt_free_mem
    rt_cmsis.o(i.svcThreadTerminate) refers to rtx_conf_cm.o(.bss) for os_stack_mem
    rt_cmsis.o(i.svcThreadYield) refers to rt_task.o(i.rt_tsk_pass) for rt_tsk_pass
    rt_cmsis.o(i.svcTimerCall) refers to rt_cmsis.o(i.rt_id2obj) for rt_id2obj
    rt_cmsis.o(i.svcTimerCreate) refers to rtx_conf_cm.o(.data) for osThreadId_osTimerThread
    rt_cmsis.o(i.svcTimerDelete) refers to rt_cmsis.o(i.rt_id2obj) for rt_id2obj
    rt_cmsis.o(i.svcTimerDelete) refers to rt_cmsis.o(i.rt_timer_remove) for rt_timer_remove
    rt_cmsis.o(i.svcTimerStart) refers to rt_cmsis.o(i.rt_id2obj) for rt_id2obj
    rt_cmsis.o(i.svcTimerStart) refers to lludivv7m.o(.text) for __aeabi_uldivmod
    rt_cmsis.o(i.svcTimerStart) refers to rt_cmsis.o(i.rt_timer_remove) for rt_timer_remove
    rt_cmsis.o(i.svcTimerStart) refers to rt_cmsis.o(i.rt_timer_insert) for rt_timer_insert
    rt_cmsis.o(i.svcTimerStart) refers to rtx_conf_cm.o(.constdata) for os_clockrate
    rt_cmsis.o(i.svcTimerStop) refers to rt_cmsis.o(i.rt_id2obj) for rt_id2obj
    rt_cmsis.o(i.svcTimerStop) refers to rt_cmsis.o(i.rt_timer_remove) for rt_timer_remove
    rt_cmsis.o(i.sysMailAlloc) refers to rt_membox.o(i.rt_alloc_box) for rt_alloc_box
    rt_cmsis.o(i.sysMailAlloc) refers to rt_list.o(i.rt_put_prio) for rt_put_prio
    rt_cmsis.o(i.sysMailAlloc) refers to rt_cmsis.o(i.rt_ms2tick) for rt_ms2tick
    rt_cmsis.o(i.sysMailAlloc) refers to rt_task.o(i.rt_block) for rt_block
    rt_cmsis.o(i.sysMailAlloc) refers to rt_task.o(.data) for os_tsk
    rt_cmsis.o(i.sysMailFree) refers to rt_membox.o(i.rt_free_box) for rt_free_box
    rt_cmsis.o(i.sysMailFree) refers to rt_list.o(i.rt_psq_enq) for rt_psq_enq
    rt_cmsis.o(i.sysMailFree) refers to rt_system.o(i.rt_psh_req) for rt_psh_req
    rt_cmsis.o(i.sysMailFree) refers to rt_membox.o(i.rt_alloc_box) for rt_alloc_box
    rt_cmsis.o(i.sysMailFree) refers to rt_list.o(i.rt_get_first) for rt_get_first
    rt_cmsis.o(i.sysMailFree) refers to hal_cm.o(i.rt_ret_val) for rt_ret_val
    rt_cmsis.o(i.sysMailFree) refers to rt_list.o(i.rt_rmv_dly) for rt_rmv_dly
    rt_cmsis.o(i.sysMailFree) refers to rt_task.o(i.rt_dispatch) for rt_dispatch
    rt_cmsis.o(i.sysPoolAlloc) refers to rt_membox.o(i.rt_alloc_box) for rt_alloc_box
    rt_cmsis.o(i.sysPoolFree) refers to rt_membox.o(i.rt_free_box) for rt_free_box
    rt_cmsis.o(i.sysTimerTick) refers to rt_cmsis.o(i.isrMessagePut) for isrMessagePut
    rt_cmsis.o(i.sysTimerTick) refers to rtx_conf_cm.o(i.os_error) for os_error
    rt_cmsis.o(i.sysTimerTick) refers to rt_cmsis.o(i.rt_timer_insert) for rt_timer_insert
    rt_cmsis.o(i.sysTimerTick) refers to rt_cmsis.o(.data) for .data
    rt_cmsis.o(i.sysTimerTick) refers to rtx_conf_cm.o(.data) for osMessageQId_osTimerMessageQ
    rt_cmsis.o(i.sysUserTimerUpdate) refers to rt_cmsis.o(i.sysTimerTick) for sysTimerTick
    rt_cmsis.o(i.sysUserTimerUpdate) refers to rt_cmsis.o(.data) for .data
    rt_cmsis.o(i.sysUserTimerWakeupTime) refers to rt_cmsis.o(.data) for .data
    rt_task.o(i.rt_block) refers to rt_list.o(i.rt_put_dly) for rt_put_dly
    rt_task.o(i.rt_block) refers to rt_list.o(i.rt_get_first) for rt_get_first
    rt_task.o(i.rt_block) refers to rt_task.o(i.rt_switch_req) for rt_switch_req
    rt_task.o(i.rt_block) refers to rt_task.o(.data) for .data
    rt_task.o(i.rt_block) refers to rt_list.o(.bss) for os_rdy
    rt_task.o(i.rt_dispatch) refers to rt_list.o(i.rt_put_rdy_first) for rt_put_rdy_first
    rt_task.o(i.rt_dispatch) refers to rt_task.o(i.rt_switch_req) for rt_switch_req
    rt_task.o(i.rt_dispatch) refers to rt_list.o(i.rt_get_first) for rt_get_first
    rt_task.o(i.rt_dispatch) refers to rt_list.o(i.rt_put_prio) for rt_put_prio
    rt_task.o(i.rt_dispatch) refers to rt_task.o(.data) for .data
    rt_task.o(i.rt_dispatch) refers to rt_list.o(.bss) for os_rdy
    rt_task.o(i.rt_init_context) refers to rt_membox.o(i.rt_alloc_box) for rt_alloc_box
    rt_task.o(i.rt_init_context) refers to hal_cm.o(i.rt_init_stack) for rt_init_stack
    rt_task.o(i.rt_init_context) refers to rtx_conf_cm.o(.bss) for mp_stk
    rt_task.o(i.rt_switch_req) refers to hal_cm.o(i.dbg_task_switch) for dbg_task_switch
    rt_task.o(i.rt_switch_req) refers to rt_task.o(.data) for .data
    rt_task.o(i.rt_switch_req) refers to hal_cm.o(.data) for dbg_msg
    rt_task.o(i.rt_sys_init) refers to hal_cm.o(i.dbg_init) for dbg_init
    rt_task.o(i.rt_sys_init) refers to rt_membox.o(i._init_box) for _init_box
    rt_task.o(i.rt_sys_init) refers to rt_task.o(i.rt_init_context) for rt_init_context
    rt_task.o(i.rt_sys_init) refers to rt_robin.o(i.rt_init_robin) for rt_init_robin
    rt_task.o(i.rt_sys_init) refers to rtx_conf_cm.o(.bss) for os_active_TCB
    rt_task.o(i.rt_sys_init) refers to rtx_conf_cm.o(.constdata) for os_maxtaskrun
    rt_task.o(i.rt_sys_init) refers to rtx_conf_cm.o(.constdata) for mp_tcb_size
    rt_task.o(i.rt_sys_init) refers to rtx_conf_cm.o(.bss) for mp_tcb
    rt_task.o(i.rt_sys_init) refers to rtx_conf_cm.o(.constdata) for os_stackinfo
    rt_task.o(i.rt_sys_init) refers to rtx_conf_cm.o(.constdata) for mp_stk_size
    rt_task.o(i.rt_sys_init) refers to rtx_conf_cm.o(.bss) for mp_stk
    rt_task.o(i.rt_sys_init) refers to rtx_conf_cm.o(.constdata) for mp_tmr_size
    rt_task.o(i.rt_sys_init) refers to rtx_conf_cm.o(.data) for m_tmr
    rt_task.o(i.rt_sys_init) refers to rt_task.o(.bss) for .bss
    rt_task.o(i.rt_sys_init) refers to rtx_conf_cm.o(i.os_idle_demon) for os_idle_demon
    rt_task.o(i.rt_sys_init) refers to rt_list.o(.bss) for os_rdy
    rt_task.o(i.rt_sys_init) refers to rt_task.o(.data) for .data
    rt_task.o(i.rt_sys_init) refers to rtx_conf_cm.o(.bss) for os_fifo
    rt_task.o(i.rt_sys_init) refers to rtx_conf_cm.o(.constdata) for os_fifo_size
    rt_task.o(i.rt_sys_start) refers to rt_system.o(i.os_tick_init) for os_tick_init
    rt_task.o(i.rt_sys_start) refers to rt_system.o(.data) for os_tick_irqn
    rt_task.o(i.rt_tsk_create) refers to rt_membox.o(i.rt_alloc_box) for rt_alloc_box
    rt_task.o(i.rt_tsk_create) refers to rt_task.o(i.rt_init_context) for rt_init_context
    rt_task.o(i.rt_tsk_create) refers to hal_cm.o(i.dbg_task_notify) for dbg_task_notify
    rt_task.o(i.rt_tsk_create) refers to rt_task.o(i.rt_dispatch) for rt_dispatch
    rt_task.o(i.rt_tsk_create) refers to rtx_conf_cm.o(.bss) for mp_tcb
    rt_task.o(i.rt_tsk_create) refers to rtx_conf_cm.o(.bss) for os_active_TCB
    rt_task.o(i.rt_tsk_create) refers to rtx_conf_cm.o(.constdata) for os_maxtaskrun
    rt_task.o(i.rt_tsk_create) refers to hal_cm.o(.data) for dbg_msg
    rt_task.o(i.rt_tsk_delete) refers to hal_cm3.o(.emb_text) for rt_get_PSP
    rt_task.o(i.rt_tsk_delete) refers to rt_system.o(i.rt_stk_check) for rt_stk_check
    rt_task.o(i.rt_tsk_delete) refers to rt_list.o(i.rt_get_first) for rt_get_first
    rt_task.o(i.rt_tsk_delete) refers to hal_cm.o(i.rt_ret_val) for rt_ret_val
    rt_task.o(i.rt_tsk_delete) refers to rt_list.o(i.rt_rmv_dly) for rt_rmv_dly
    rt_task.o(i.rt_tsk_delete) refers to rt_list.o(i.rt_put_prio) for rt_put_prio
    rt_task.o(i.rt_tsk_delete) refers to rt_membox.o(i.rt_free_box) for rt_free_box
    rt_task.o(i.rt_tsk_delete) refers to hal_cm.o(i.dbg_task_notify) for dbg_task_notify
    rt_task.o(i.rt_tsk_delete) refers to rt_list.o(i.rt_rmv_list) for rt_rmv_list
    rt_task.o(i.rt_tsk_delete) refers to rt_task.o(i.rt_dispatch) for rt_dispatch
    rt_task.o(i.rt_tsk_delete) refers to hal_cm.o(.data) for dbg_msg
    rt_task.o(i.rt_tsk_delete) refers to rtx_conf_cm.o(.bss) for os_active_TCB
    rt_task.o(i.rt_tsk_delete) refers to rt_task.o(.data) for .data
    rt_task.o(i.rt_tsk_delete) refers to rt_list.o(.bss) for os_rdy
    rt_task.o(i.rt_tsk_delete) refers to rtx_conf_cm.o(.bss) for mp_stk
    rt_task.o(i.rt_tsk_delete) refers to rtx_conf_cm.o(.bss) for mp_tcb
    rt_task.o(i.rt_tsk_delete) refers to rtx_conf_cm.o(.constdata) for os_maxtaskrun
    rt_task.o(i.rt_tsk_pass) refers to rt_list.o(i.rt_get_same_rdy_prio) for rt_get_same_rdy_prio
    rt_task.o(i.rt_tsk_pass) refers to rt_list.o(i.rt_put_prio) for rt_put_prio
    rt_task.o(i.rt_tsk_pass) refers to rt_task.o(i.rt_switch_req) for rt_switch_req
    rt_task.o(i.rt_tsk_pass) refers to rt_task.o(.data) for .data
    rt_task.o(i.rt_tsk_pass) refers to rt_list.o(.bss) for os_rdy
    rt_task.o(i.rt_tsk_prio) refers to rt_list.o(i.rt_put_prio) for rt_put_prio
    rt_task.o(i.rt_tsk_prio) refers to rt_list.o(i.rt_resort_prio) for rt_resort_prio
    rt_task.o(i.rt_tsk_prio) refers to rt_list.o(i.rt_get_first) for rt_get_first
    rt_task.o(i.rt_tsk_prio) refers to rt_task.o(i.rt_dispatch) for rt_dispatch
    rt_task.o(i.rt_tsk_prio) refers to rt_task.o(.data) for .data
    rt_task.o(i.rt_tsk_prio) refers to rtx_conf_cm.o(.constdata) for os_maxtaskrun
    rt_task.o(i.rt_tsk_prio) refers to rtx_conf_cm.o(.bss) for os_active_TCB
    rt_task.o(i.rt_tsk_prio) refers to rt_list.o(.bss) for os_rdy
    rt_task.o(i.rt_tsk_self) refers to rt_task.o(.data) for .data
    rt_mutex.o(i.rt_mut_delete) refers to rt_list.o(i.rt_resort_prio) for rt_resort_prio
    rt_mutex.o(i.rt_mut_delete) refers to rt_list.o(i.rt_get_first) for rt_get_first
    rt_mutex.o(i.rt_mut_delete) refers to hal_cm.o(i.rt_ret_val) for rt_ret_val
    rt_mutex.o(i.rt_mut_delete) refers to rt_list.o(i.rt_rmv_dly) for rt_rmv_dly
    rt_mutex.o(i.rt_mut_delete) refers to rt_list.o(i.rt_put_prio) for rt_put_prio
    rt_mutex.o(i.rt_mut_delete) refers to rt_task.o(i.rt_dispatch) for rt_dispatch
    rt_mutex.o(i.rt_mut_delete) refers to rt_task.o(.data) for os_tsk
    rt_mutex.o(i.rt_mut_delete) refers to rt_list.o(.bss) for os_rdy
    rt_mutex.o(i.rt_mut_release) refers to rt_list.o(i.rt_get_first) for rt_get_first
    rt_mutex.o(i.rt_mut_release) refers to hal_cm.o(i.rt_ret_val) for rt_ret_val
    rt_mutex.o(i.rt_mut_release) refers to rt_list.o(i.rt_rmv_dly) for rt_rmv_dly
    rt_mutex.o(i.rt_mut_release) refers to rt_list.o(i.rt_put_prio) for rt_put_prio
    rt_mutex.o(i.rt_mut_release) refers to rt_task.o(i.rt_dispatch) for rt_dispatch
    rt_mutex.o(i.rt_mut_release) refers to rt_task.o(.data) for os_tsk
    rt_mutex.o(i.rt_mut_release) refers to rt_list.o(.bss) for os_rdy
    rt_mutex.o(i.rt_mut_wait) refers to rt_list.o(i.rt_resort_prio) for rt_resort_prio
    rt_mutex.o(i.rt_mut_wait) refers to rt_list.o(i.rt_put_prio) for rt_put_prio
    rt_mutex.o(i.rt_mut_wait) refers to rt_task.o(i.rt_block) for rt_block
    rt_mutex.o(i.rt_mut_wait) refers to rt_task.o(.data) for os_tsk
    usbd_lib_core.o(i.USBD0_Core_Thread) refers to usbd_lib_core.o(i.USBD_Core_Thread) for USBD_Core_Thread
    usbd_lib_core.o(i.USBD1_Core_Thread) refers to usbd_lib_core.o(i.USBD_Core_Thread) for USBD_Core_Thread
    usbd_lib_core.o(i.USBD2_Core_Thread) refers to usbd_lib_core.o(i.USBD_Core_Thread) for USBD_Core_Thread
    usbd_lib_core.o(i.USBD3_Core_Thread) refers to usbd_lib_core.o(i.USBD_Core_Thread) for USBD_Core_Thread
    usbd_lib_core.o(i.USBD_CheckDevice) refers to usbd_config_0.o(.constdata) for usbd_dev_num
    usbd_lib_core.o(i.USBD_CheckDevice) refers to usbd_config_0.o(.constdata) for usbd_dev_ptr
    usbd_lib_core.o(i.USBD_Configured) refers to usbd_lib_core.o(i.USBD_CheckDevice) for USBD_CheckDevice
    usbd_lib_core.o(i.USBD_Configured) refers to usbd_config_0.o(.constdata) for usbd_dev_ptr
    usbd_lib_core.o(i.USBD_Connect) refers to usbd_lib_core.o(i.USBD_CheckDevice) for USBD_CheckDevice
    usbd_lib_core.o(i.USBD_Connect) refers to usbd_lib_drv.o(i.USBD_DriverDeviceConnect) for USBD_DriverDeviceConnect
    usbd_lib_core.o(i.USBD_Core) refers to usbd_lib_core.o(i.USBD_ResetCore) for USBD_ResetCore
    usbd_lib_core.o(i.USBD_Core) refers to usbd_lib_drv.o(i.USBD_DriverEndpointConfigure) for USBD_DriverEndpointConfigure
    usbd_lib_core.o(i.USBD_Core) refers to usbd_config_0.o(i.USBD_Reset) for USBD_Reset
    usbd_lib_core.o(i.USBD_Core) refers to usbd_lib_core.o(i.USBD_Endpoint0) for USBD_Endpoint0
    usbd_lib_core.o(i.USBD_Core) refers to usbd_config_0.o(.constdata) for fpUSBD_Device_VbusChanged
    usbd_lib_core.o(i.USBD_Core) refers to usbd_config_0.o(.data) for usbd_desc_ptr
    usbd_lib_core.o(i.USBD_Core) refers to usbd_config_0.o(.constdata) for fpUSBD_Device_Reset
    usbd_lib_core.o(i.USBD_Core) refers to usbd_config_0.o(.constdata) for usbd_dev_ptr
    usbd_lib_core.o(i.USBD_Core) refers to usbd_config_0.o(.constdata) for fpUSBD_Device_HighSpeedActivated
    usbd_lib_core.o(i.USBD_Core) refers to usbd_config_0.o(.constdata) for fpUSBD_Device_Suspended
    usbd_lib_core.o(i.USBD_Core) refers to usbd_config_0.o(.constdata) for fpUSBD_Device_Resumed
    usbd_lib_core.o(i.USBD_Core_Thread) refers to usbd_config_0.o(i.USBD_ThreadFlagsWait) for USBD_ThreadFlagsWait
    usbd_lib_core.o(i.USBD_Core_Thread) refers to usbd_lib_core.o(i.USBD_Core) for USBD_Core
    usbd_lib_core.o(i.USBD_Core_Thread) refers to usbd_config_0.o(.constdata) for usbd_dev_num
    usbd_lib_core.o(i.USBD_Core_Thread) refers to usbd_config_0.o(.constdata) for usbd_dev_ptr
    usbd_lib_core.o(i.USBD_Core_Thread) refers to usbd_config_0.o(.data) for usbd_capabilities
    usbd_lib_core.o(i.USBD_DataInStage) refers to usbd_lib_drv.o(i.USBD_DriverEndpointTransfer) for USBD_DriverEndpointTransfer
    usbd_lib_core.o(i.USBD_DataInStage) refers to usbd_config_0.o(.constdata) for usbd_dev_ptr
    usbd_lib_core.o(i.USBD_DataOutStage) refers to usbd_lib_drv.o(i.USBD_DriverEndpointTransfer) for USBD_DriverEndpointTransfer
    usbd_lib_core.o(i.USBD_DataOutStage) refers to usbd_config_0.o(.constdata) for usbd_dev_ptr
    usbd_lib_core.o(i.USBD_Disconnect) refers to usbd_lib_core.o(i.USBD_CheckDevice) for USBD_CheckDevice
    usbd_lib_core.o(i.USBD_Disconnect) refers to usbd_lib_drv.o(i.USBD_DriverDeviceDisconnect) for USBD_DriverDeviceDisconnect
    usbd_lib_core.o(i.USBD_Endpoint0) refers to usbd_lib_core.o(i.USBD_DataInStage) for USBD_DataInStage
    usbd_lib_core.o(i.USBD_Endpoint0) refers to usbd_lib_core_device.o(i.USBD_Core_Endpoint0_InDataSent) for USBD_Core_Endpoint0_InDataSent
    usbd_lib_core.o(i.USBD_Endpoint0) refers to usbd_lib_drv.o(i.USBD_DriverEndpointStall) for USBD_DriverEndpointStall
    usbd_lib_core.o(i.USBD_Endpoint0) refers to usbd_lib_core.o(i.USBD_StatusOutStage) for USBD_StatusOutStage
    usbd_lib_core.o(i.USBD_Endpoint0) refers to usbd_lib_core.o(i.USBD_StatusInStageDone) for USBD_StatusInStageDone
    usbd_lib_core.o(i.USBD_Endpoint0) refers to usbd_lib_drv.o(i.USBD_DriverDeviceSetAddress) for USBD_DriverDeviceSetAddress
    usbd_lib_core.o(i.USBD_Endpoint0) refers to usbd_lib_core.o(i.USBD_DataOutStage) for USBD_DataOutStage
    usbd_lib_core.o(i.USBD_Endpoint0) refers to usbd_lib_core_device.o(i.USBD_Core_Endpoint0_OutDataReceived) for USBD_Core_Endpoint0_OutDataReceived
    usbd_lib_core.o(i.USBD_Endpoint0) refers to usbd_lib_core.o(i.USBD_StatusInStage) for USBD_StatusInStage
    usbd_lib_core.o(i.USBD_Endpoint0) refers to usbd_config_0.o(i.USBD_Endpoint0_Out_HID_ReqToIF) for USBD_Endpoint0_Out_HID_ReqToIF
    usbd_lib_core.o(i.USBD_Endpoint0) refers to usbd_config_0.o(i.USBD_Endpoint0_Out_ADC_ReqToIF) for USBD_Endpoint0_Out_ADC_ReqToIF
    usbd_lib_core.o(i.USBD_Endpoint0) refers to usbd_lib_core_cdc.o(i.USBD_Endpoint0_Out_CDC_ReqToIF) for USBD_Endpoint0_Out_CDC_ReqToIF
    usbd_lib_core.o(i.USBD_Endpoint0) refers to usbd_config_0.o(i.USBD_Endpoint0_Out_ADC_ReqToEP) for USBD_Endpoint0_Out_ADC_ReqToEP
    usbd_lib_core.o(i.USBD_Endpoint0) refers to usbd_lib_core.o(i.USBD_StatusOutStageDone) for USBD_StatusOutStageDone
    usbd_lib_core.o(i.USBD_Endpoint0) refers to usbd_lib_drv.o(i.USBD_DriverReadSetupPacket) for USBD_DriverReadSetupPacket
    usbd_lib_core.o(i.USBD_Endpoint0) refers to usbd_lib_core_device.o(i.USBD_Core_Endpoint0_SetupPacketReceived) for USBD_Core_Endpoint0_SetupPacketReceived
    usbd_lib_core.o(i.USBD_Endpoint0) refers to usbd_lib_core.o(i.USBD_ReqGetStatus) for USBD_ReqGetStatus
    usbd_lib_core.o(i.USBD_Endpoint0) refers to usbd_lib_core_device.o(i.USBD_Core_Endpoint0_SetupPacketProcessed) for USBD_Core_Endpoint0_SetupPacketProcessed
    usbd_lib_core.o(i.USBD_Endpoint0) refers to usbd_lib_core.o(i.USBD_ReqSetClrFeature) for USBD_ReqSetClrFeature
    usbd_lib_core.o(i.USBD_Endpoint0) refers to usbd_lib_core.o(i.USBD_ReqGetDescriptor) for USBD_ReqGetDescriptor
    usbd_lib_core.o(i.USBD_Endpoint0) refers to usbd_lib_core.o(i.USBD_ReqSetConfiguration) for USBD_ReqSetConfiguration
    usbd_lib_core.o(i.USBD_Endpoint0) refers to usbd_lib_core.o(i.USBD_ReqSetInterface) for USBD_ReqSetInterface
    usbd_lib_core.o(i.USBD_Endpoint0) refers to usbd_config_0.o(i.USBD_Endpoint0_Setup_HID_ReqToIF) for USBD_Endpoint0_Setup_HID_ReqToIF
    usbd_lib_core.o(i.USBD_Endpoint0) refers to usbd_config_0.o(i.USBD_Endpoint0_Setup_MSC_ReqToIF) for USBD_Endpoint0_Setup_MSC_ReqToIF
    usbd_lib_core.o(i.USBD_Endpoint0) refers to usbd_config_0.o(i.USBD_Endpoint0_Setup_ADC_ReqToIF) for USBD_Endpoint0_Setup_ADC_ReqToIF
    usbd_lib_core.o(i.USBD_Endpoint0) refers to usbd_lib_core_cdc.o(i.USBD_Endpoint0_Setup_CDC_ReqToIF) for USBD_Endpoint0_Setup_CDC_ReqToIF
    usbd_lib_core.o(i.USBD_Endpoint0) refers to usbd_config_0.o(i.USBD_Endpoint0_Setup_ADC_ReqToEP) for USBD_Endpoint0_Setup_ADC_ReqToEP
    usbd_lib_core.o(i.USBD_Endpoint0) refers to usbd_lib_core.o(i.USBD_ReqGetMSDescriptor) for USBD_ReqGetMSDescriptor
    usbd_lib_core.o(i.USBD_Endpoint0) refers to usbd_config_0.o(.constdata) for usbd_dev_num
    usbd_lib_core.o(i.USBD_Endpoint0) refers to usbd_config_0.o(.constdata) for usbd_dev_ptr
    usbd_lib_core.o(i.USBD_EndpointAbort) refers to usbd_lib_core.o(i.USBD_CheckDevice) for USBD_CheckDevice
    usbd_lib_core.o(i.USBD_EndpointAbort) refers to usbd_lib_drv.o(i.USBD_DriverEndpointTransferAbort) for USBD_DriverEndpointTransferAbort
    usbd_lib_core.o(i.USBD_EndpointRead) refers to usbd_lib_core.o(i.USBD_CheckDevice) for USBD_CheckDevice
    usbd_lib_core.o(i.USBD_EndpointRead) refers to usbd_lib_drv.o(i.USBD_DriverEndpointTransfer) for USBD_DriverEndpointTransfer
    usbd_lib_core.o(i.USBD_EndpointReadGetResult) refers to usbd_lib_core.o(i.USBD_CheckDevice) for USBD_CheckDevice
    usbd_lib_core.o(i.USBD_EndpointReadGetResult) refers to usbd_lib_drv.o(i.USBD_DriverEndpointTransferGetResult) for USBD_DriverEndpointTransferGetResult
    usbd_lib_core.o(i.USBD_EndpointStall) refers to usbd_lib_core.o(i.USBD_CheckDevice) for USBD_CheckDevice
    usbd_lib_core.o(i.USBD_EndpointStall) refers to usbd_lib_drv.o(i.USBD_DriverEndpointTransferAbort) for USBD_DriverEndpointTransferAbort
    usbd_lib_core.o(i.USBD_EndpointStall) refers to usbd_lib_drv.o(i.USBD_DriverEndpointStall) for USBD_DriverEndpointStall
    usbd_lib_core.o(i.USBD_EndpointStall) refers to usbd_config_0.o(.constdata) for usbd_dev_ptr
    usbd_lib_core.o(i.USBD_EndpointWrite) refers to usbd_lib_core.o(i.USBD_CheckDevice) for USBD_CheckDevice
    usbd_lib_core.o(i.USBD_EndpointWrite) refers to usbd_lib_drv.o(i.USBD_DriverEndpointTransfer) for USBD_DriverEndpointTransfer
    usbd_lib_core.o(i.USBD_EndpointWriteGetResult) refers to usbd_lib_core.o(i.USBD_CheckDevice) for USBD_CheckDevice
    usbd_lib_core.o(i.USBD_EndpointWriteGetResult) refers to usbd_lib_drv.o(i.USBD_DriverEndpointTransferGetResult) for USBD_DriverEndpointTransferGetResult
    usbd_lib_core.o(i.USBD_GetState) refers to usbd_lib_core.o(i.USBD_CheckDevice) for USBD_CheckDevice
    usbd_lib_core.o(i.USBD_GetState) refers to usbd_lib_drv.o(i.USBD_DriverDeviceGetState) for USBD_DriverDeviceGetState
    usbd_lib_core.o(i.USBD_GetVersion) refers to usb_lib_ver.o(__MW_USB_LIB_VERSION_6.12.4) for usb_lib_version
    usbd_lib_core.o(i.USBD_Initialize) refers to usbd_lib_core.o(i.USBD_CheckDevice) for USBD_CheckDevice
    usbd_lib_core.o(i.USBD_Initialize) refers to usbd_lib_drv.o(i.USBD_DriverGetVersion) for USBD_DriverGetVersion
    usbd_lib_core.o(i.USBD_Initialize) refers to usbd_lib_drv.o(i.USBD_DriverGetCapabilities) for USBD_DriverGetCapabilities
    usbd_lib_core.o(i.USBD_Initialize) refers to usbd_config_0.o(i.USBD_SemaphoreCreate) for USBD_SemaphoreCreate
    usbd_lib_core.o(i.USBD_Initialize) refers to rt_memclr.o(.text) for __aeabi_memclr
    usbd_lib_core.o(i.USBD_Initialize) refers to usbd_config_0.o(i.USBD_ClassInitialize) for USBD_ClassInitialize
    usbd_lib_core.o(i.USBD_Initialize) refers to usbd_config_0.o(i.USBD_ThreadCreate) for USBD_ThreadCreate
    usbd_lib_core.o(i.USBD_Initialize) refers to usbd_lib_drv.o(i.USBD_DriverInitialize) for USBD_DriverInitialize
    usbd_lib_core.o(i.USBD_Initialize) refers to usbd_lib_drv.o(i.USBD_DriverPowerControl) for USBD_DriverPowerControl
    usbd_lib_core.o(i.USBD_Initialize) refers to usbd_config_0.o(.data) for usbd_drv_version
    usbd_lib_core.o(i.USBD_Initialize) refers to usbd_config_0.o(.data) for usbd_capabilities
    usbd_lib_core.o(i.USBD_Initialize) refers to usbd_config_0.o(.data) for usbd_driver_semaphore_id
    usbd_lib_core.o(i.USBD_Initialize) refers to usbd_config_0.o(.bss) for usbd_driver_ep_semaphore_id
    usbd_lib_core.o(i.USBD_Initialize) refers to usbd_config_0.o(.constdata) for usbd_ep_max_num
    usbd_lib_core.o(i.USBD_Initialize) refers to usbd_config_0.o(.data) for usbd_desc_ptr
    usbd_lib_core.o(i.USBD_Initialize) refers to usbd_config_0.o(.constdata) for usbd_dev_ptr
    usbd_lib_core.o(i.USBD_Initialize) refers to usbd_config_0.o(.constdata) for fpUSBD_Device_Initialize
    usbd_lib_core.o(i.USBD_Initialize) refers to usbd_config_0.o(.data) for usbd_core_thread_id
    usbd_lib_core.o(i.USBD_Initialize) refers to usbd_config_0.o(.constdata) for usbd_cb_endpoint_event_ptr
    usbd_lib_core.o(i.USBD_Initialize) refers to usbd_config_0.o(.constdata) for usbd_cb_device_event_ptr
    usbd_lib_core.o(i.USBD_ReqGetDescriptor) refers to usbd_config_0.o(i.USBD_Endpoint0_ReqGetDescriptor_HID) for USBD_Endpoint0_ReqGetDescriptor_HID
    usbd_lib_core.o(i.USBD_ReqGetDescriptor) refers to usbd_config_0.o(.constdata) for usbd_dev_num
    usbd_lib_core.o(i.USBD_ReqGetDescriptor) refers to usbd_config_0.o(.constdata) for usbd_dev_ptr
    usbd_lib_core.o(i.USBD_ReqGetDescriptor) refers to usbd_lib_core.o(.data) for .data
    usbd_lib_core.o(i.USBD_ReqGetDescriptor) refers to usbd_config_0.o(.data) for usbd_desc_ptr
    usbd_lib_core.o(i.USBD_ReqGetMSDescriptor) refers to usbd_config_0.o(i.USBD_Endpoint0_ReqGetExtProp_CC) for USBD_Endpoint0_ReqGetExtProp_CC
    usbd_lib_core.o(i.USBD_ReqGetMSDescriptor) refers to usbd_config_0.o(.constdata) for usbd_dev_num
    usbd_lib_core.o(i.USBD_ReqGetMSDescriptor) refers to usbd_config_0.o(.constdata) for usbd_dev_ptr
    usbd_lib_core.o(i.USBD_ReqGetMSDescriptor) refers to usbd_lib_core.o(.data) for .data
    usbd_lib_core.o(i.USBD_ReqGetMSDescriptor) refers to usbd_config_0.o(.data) for usbd_desc_ptr
    usbd_lib_core.o(i.USBD_ReqGetStatus) refers to usbd_config_0.o(.constdata) for usbd_dev_num
    usbd_lib_core.o(i.USBD_ReqGetStatus) refers to usbd_config_0.o(.constdata) for usbd_dev_ptr
    usbd_lib_core.o(i.USBD_ReqSetClrFeature) refers to usbd_lib_drv.o(i.USBD_DriverEndpointTransferAbort) for USBD_DriverEndpointTransferAbort
    usbd_lib_core.o(i.USBD_ReqSetClrFeature) refers to usbd_lib_drv.o(i.USBD_DriverEndpointStall) for USBD_DriverEndpointStall
    usbd_lib_core.o(i.USBD_ReqSetClrFeature) refers to usbd_config_0.o(i.USBD_EndpointStop) for USBD_EndpointStop
    usbd_lib_core.o(i.USBD_ReqSetClrFeature) refers to usbd_config_0.o(i.USBD_Endpoint0_ClearFeatureStall_MSC) for USBD_Endpoint0_ClearFeatureStall_MSC
    usbd_lib_core.o(i.USBD_ReqSetClrFeature) refers to usbd_config_0.o(i.USBD_EndpointStart) for USBD_EndpointStart
    usbd_lib_core.o(i.USBD_ReqSetClrFeature) refers to usbd_config_0.o(.constdata) for usbd_dev_num
    usbd_lib_core.o(i.USBD_ReqSetClrFeature) refers to usbd_config_0.o(.constdata) for usbd_dev_ptr
    usbd_lib_core.o(i.USBD_ReqSetClrFeature) refers to usbd_config_0.o(.constdata) for fpUSBD_Device_EnableRemoteWakeup
    usbd_lib_core.o(i.USBD_ReqSetClrFeature) refers to usbd_config_0.o(.constdata) for fpUSBD_Device_DisableRemoteWakeup
    usbd_lib_core.o(i.USBD_ReqSetConfiguration) refers to usbd_lib_drv.o(i.USBD_DriverEndpointTransferAbort) for USBD_DriverEndpointTransferAbort
    usbd_lib_core.o(i.USBD_ReqSetConfiguration) refers to usbd_lib_drv.o(i.USBD_DriverEndpointUnconfigure) for USBD_DriverEndpointUnconfigure
    usbd_lib_core.o(i.USBD_ReqSetConfiguration) refers to usbd_config_0.o(i.USBD_EndpointStop) for USBD_EndpointStop
    usbd_lib_core.o(i.USBD_ReqSetConfiguration) refers to usbd_lib_drv.o(i.USBD_DriverEndpointConfigure) for USBD_DriverEndpointConfigure
    usbd_lib_core.o(i.USBD_ReqSetConfiguration) refers to usbd_config_0.o(i.USBD_EndpointStart) for USBD_EndpointStart
    usbd_lib_core.o(i.USBD_ReqSetConfiguration) refers to usbd_config_0.o(i.USBD_SetConfiguration) for USBD_SetConfiguration
    usbd_lib_core.o(i.USBD_ReqSetConfiguration) refers to usbd_config_0.o(.constdata) for usbd_dev_num
    usbd_lib_core.o(i.USBD_ReqSetConfiguration) refers to usbd_config_0.o(.constdata) for usbd_dev_ptr
    usbd_lib_core.o(i.USBD_ReqSetConfiguration) refers to usbd_config_0.o(.data) for usbd_desc_ptr
    usbd_lib_core.o(i.USBD_ReqSetConfiguration) refers to usbd_config_0.o(.constdata) for fpUSBD_Device_ConfigurationChanged
    usbd_lib_core.o(i.USBD_ReqSetInterface) refers to usbd_lib_drv.o(i.USBD_DriverEndpointTransferAbort) for USBD_DriverEndpointTransferAbort
    usbd_lib_core.o(i.USBD_ReqSetInterface) refers to usbd_lib_drv.o(i.USBD_DriverEndpointConfigure) for USBD_DriverEndpointConfigure
    usbd_lib_core.o(i.USBD_ReqSetInterface) refers to usbd_config_0.o(i.USBD_EndpointStart) for USBD_EndpointStart
    usbd_lib_core.o(i.USBD_ReqSetInterface) refers to usbd_lib_drv.o(i.USBD_DriverEndpointUnconfigure) for USBD_DriverEndpointUnconfigure
    usbd_lib_core.o(i.USBD_ReqSetInterface) refers to usbd_config_0.o(i.USBD_EndpointStop) for USBD_EndpointStop
    usbd_lib_core.o(i.USBD_ReqSetInterface) refers to usbd_config_0.o(.constdata) for usbd_dev_num
    usbd_lib_core.o(i.USBD_ReqSetInterface) refers to usbd_config_0.o(.constdata) for usbd_dev_ptr
    usbd_lib_core.o(i.USBD_ReqSetInterface) refers to usbd_config_0.o(.data) for usbd_desc_ptr
    usbd_lib_core.o(i.USBD_ResetCore) refers to rt_memclr_w.o(.text) for __aeabi_memclr4
    usbd_lib_core.o(i.USBD_ResetCore) refers to usbd_config_0.o(.constdata) for usbd_dev_ptr
    usbd_lib_core.o(i.USBD_SetSerialNumber) refers to usbd_lib_core.o(i.USBD_CheckDevice) for USBD_CheckDevice
    usbd_lib_core.o(i.USBD_SetSerialNumber) refers to strlen.o(.text) for strlen
    usbd_lib_core.o(i.USBD_SetSerialNumber) refers to usbd_config_0.o(.constdata) for usbd_dev_ptr
    usbd_lib_core.o(i.USBD_SetSerialNumber) refers to usbd_config_0.o(.data) for usbd_desc_ptr
    usbd_lib_core.o(i.USBD_StatusInStage) refers to usbd_lib_drv.o(i.USBD_DriverEndpointTransfer) for USBD_DriverEndpointTransfer
    usbd_lib_core.o(i.USBD_StatusInStageDone) refers to usbd_lib_drv.o(i.USBD_DriverEndpointTransferGetResult) for USBD_DriverEndpointTransferGetResult
    usbd_lib_core.o(i.USBD_StatusOutStage) refers to usbd_lib_drv.o(i.USBD_DriverEndpointTransfer) for USBD_DriverEndpointTransfer
    usbd_lib_core.o(i.USBD_StatusOutStageDone) refers to usbd_lib_drv.o(i.USBD_DriverEndpointTransferGetResult) for USBD_DriverEndpointTransferGetResult
    usbd_lib_core.o(i.USBD_StatusOutStageDone) refers to usbd_lib_drv.o(i.USBD_DriverEndpointTransferAbort) for USBD_DriverEndpointTransferAbort
    usbd_lib_core.o(i.USBD_StatusOutStageDone) refers to usbd_config_0.o(.constdata) for usbd_dev_ptr
    usbd_lib_core.o(i.USBD_Uninitialize) refers to usbd_lib_core.o(i.USBD_CheckDevice) for USBD_CheckDevice
    usbd_lib_core.o(i.USBD_Uninitialize) refers to usbd_config_0.o(i.USBD_EndpointStop) for USBD_EndpointStop
    usbd_lib_core.o(i.USBD_Uninitialize) refers to usbd_lib_drv.o(i.USBD_DriverEndpointTransferAbort) for USBD_DriverEndpointTransferAbort
    usbd_lib_core.o(i.USBD_Uninitialize) refers to usbd_lib_drv.o(i.USBD_DriverEndpointUnconfigure) for USBD_DriverEndpointUnconfigure
    usbd_lib_core.o(i.USBD_Uninitialize) refers to usbd_lib_drv.o(i.USBD_DriverPowerControl) for USBD_DriverPowerControl
    usbd_lib_core.o(i.USBD_Uninitialize) refers to usbd_lib_drv.o(i.USBD_DriverUninitialize) for USBD_DriverUninitialize
    usbd_lib_core.o(i.USBD_Uninitialize) refers to usbd_config_0.o(i.USBD_ThreadTerminate) for USBD_ThreadTerminate
    usbd_lib_core.o(i.USBD_Uninitialize) refers to usbd_config_0.o(i.USBD_ClassUninitialize) for USBD_ClassUninitialize
    usbd_lib_core.o(i.USBD_Uninitialize) refers to usbd_config_0.o(i.USBD_SemaphoreDelete) for USBD_SemaphoreDelete
    usbd_lib_core.o(i.USBD_Uninitialize) refers to usbd_config_0.o(.constdata) for usbd_dev_ptr
    usbd_lib_core.o(i.USBD_Uninitialize) refers to usbd_config_0.o(.data) for usbd_core_thread_id
    usbd_lib_core.o(i.USBD_Uninitialize) refers to usbd_config_0.o(.constdata) for fpUSBD_Device_Uninitialize
    usbd_lib_core.o(i.USBD_Uninitialize) refers to usbd_config_0.o(.bss) for usbd_driver_ep_semaphore_id
    usbd_lib_core.o(i.USBD_Uninitialize) refers to usbd_config_0.o(.constdata) for usbd_ep_max_num
    usbd_lib_core.o(i.USBD_Uninitialize) refers to usbd_config_0.o(.data) for usbd_driver_semaphore_id
    usbd_lib_drv.o(i.USBD_DriverDeviceConnect) refers to usbd_config_0.o(i.USBD_SemaphoreAcquire) for USBD_SemaphoreAcquire
    usbd_lib_drv.o(i.USBD_DriverDeviceConnect) refers to usbd_config_0.o(i.USBD_Delay) for USBD_Delay
    usbd_lib_drv.o(i.USBD_DriverDeviceConnect) refers to usbd_config_0.o(i.USBD_SemaphoreRelease) for USBD_SemaphoreRelease
    usbd_lib_drv.o(i.USBD_DriverDeviceConnect) refers to usbd_config_0.o(.data) for usbd_driver_semaphore_id
    usbd_lib_drv.o(i.USBD_DriverDeviceConnect) refers to usbd_config_0.o(.constdata) for usbd_dev_ptr
    usbd_lib_drv.o(i.USBD_DriverDeviceDisconnect) refers to usbd_config_0.o(i.USBD_SemaphoreAcquire) for USBD_SemaphoreAcquire
    usbd_lib_drv.o(i.USBD_DriverDeviceDisconnect) refers to usbd_config_0.o(i.USBD_Delay) for USBD_Delay
    usbd_lib_drv.o(i.USBD_DriverDeviceDisconnect) refers to usbd_config_0.o(i.USBD_SemaphoreRelease) for USBD_SemaphoreRelease
    usbd_lib_drv.o(i.USBD_DriverDeviceDisconnect) refers to usbd_config_0.o(.data) for usbd_driver_semaphore_id
    usbd_lib_drv.o(i.USBD_DriverDeviceDisconnect) refers to usbd_config_0.o(.constdata) for usbd_dev_ptr
    usbd_lib_drv.o(i.USBD_DriverDeviceGetState) refers to usbd_config_0.o(.constdata) for usbd_dev_ptr
    usbd_lib_drv.o(i.USBD_DriverDeviceRemoteWakeup) refers to usbd_config_0.o(i.USBD_SemaphoreAcquire) for USBD_SemaphoreAcquire
    usbd_lib_drv.o(i.USBD_DriverDeviceRemoteWakeup) refers to usbd_config_0.o(i.USBD_Delay) for USBD_Delay
    usbd_lib_drv.o(i.USBD_DriverDeviceRemoteWakeup) refers to usbd_config_0.o(i.USBD_SemaphoreRelease) for USBD_SemaphoreRelease
    usbd_lib_drv.o(i.USBD_DriverDeviceRemoteWakeup) refers to usbd_config_0.o(.data) for usbd_driver_semaphore_id
    usbd_lib_drv.o(i.USBD_DriverDeviceRemoteWakeup) refers to usbd_config_0.o(.constdata) for usbd_dev_ptr
    usbd_lib_drv.o(i.USBD_DriverDeviceSetAddress) refers to usbd_config_0.o(i.USBD_SemaphoreAcquire) for USBD_SemaphoreAcquire
    usbd_lib_drv.o(i.USBD_DriverDeviceSetAddress) refers to usbd_config_0.o(i.USBD_Delay) for USBD_Delay
    usbd_lib_drv.o(i.USBD_DriverDeviceSetAddress) refers to usbd_config_0.o(i.USBD_SemaphoreRelease) for USBD_SemaphoreRelease
    usbd_lib_drv.o(i.USBD_DriverDeviceSetAddress) refers to usbd_config_0.o(.data) for usbd_driver_semaphore_id
    usbd_lib_drv.o(i.USBD_DriverDeviceSetAddress) refers to usbd_config_0.o(.constdata) for usbd_dev_ptr
    usbd_lib_drv.o(i.USBD_DriverEndpointConfigure) refers to usbd_lib_drv.o(i.USBD_DriverEndpointTransferAbort) for USBD_DriverEndpointTransferAbort
    usbd_lib_drv.o(i.USBD_DriverEndpointConfigure) refers to usbd_config_0.o(i.USBD_SemaphoreAcquire) for USBD_SemaphoreAcquire
    usbd_lib_drv.o(i.USBD_DriverEndpointConfigure) refers to usbd_config_0.o(i.USBD_Delay) for USBD_Delay
    usbd_lib_drv.o(i.USBD_DriverEndpointConfigure) refers to usbd_config_0.o(i.USBD_SemaphoreRelease) for USBD_SemaphoreRelease
    usbd_lib_drv.o(i.USBD_DriverEndpointConfigure) refers to usbd_config_0.o(.constdata) for usbd_ep_max_num
    usbd_lib_drv.o(i.USBD_DriverEndpointConfigure) refers to usbd_config_0.o(.constdata) for usbd_dev_ptr
    usbd_lib_drv.o(i.USBD_DriverEndpointConfigure) refers to usbd_config_0.o(.bss) for usbd_driver_ep_semaphore_id
    usbd_lib_drv.o(i.USBD_DriverEndpointStall) refers to usbd_lib_drv.o(i.USBD_DriverEndpointTransferAbort) for USBD_DriverEndpointTransferAbort
    usbd_lib_drv.o(i.USBD_DriverEndpointStall) refers to usbd_config_0.o(i.USBD_SemaphoreAcquire) for USBD_SemaphoreAcquire
    usbd_lib_drv.o(i.USBD_DriverEndpointStall) refers to usbd_config_0.o(i.USBD_Delay) for USBD_Delay
    usbd_lib_drv.o(i.USBD_DriverEndpointStall) refers to usbd_config_0.o(i.USBD_SemaphoreRelease) for USBD_SemaphoreRelease
    usbd_lib_drv.o(i.USBD_DriverEndpointStall) refers to usbd_config_0.o(.constdata) for usbd_ep_max_num
    usbd_lib_drv.o(i.USBD_DriverEndpointStall) refers to usbd_config_0.o(.constdata) for usbd_dev_ptr
    usbd_lib_drv.o(i.USBD_DriverEndpointStall) refers to usbd_config_0.o(.bss) for usbd_driver_ep_semaphore_id
    usbd_lib_drv.o(i.USBD_DriverEndpointTransfer) refers to usbd_lib_drv.o(i.USBD_DriverEndpointTransferAbort) for USBD_DriverEndpointTransferAbort
    usbd_lib_drv.o(i.USBD_DriverEndpointTransfer) refers to usbd_config_0.o(i.USBD_SemaphoreAcquire) for USBD_SemaphoreAcquire
    usbd_lib_drv.o(i.USBD_DriverEndpointTransfer) refers to usbd_config_0.o(i.USBD_Delay) for USBD_Delay
    usbd_lib_drv.o(i.USBD_DriverEndpointTransfer) refers to usbd_config_0.o(i.USBD_SemaphoreRelease) for USBD_SemaphoreRelease
    usbd_lib_drv.o(i.USBD_DriverEndpointTransfer) refers to usbd_config_0.o(.constdata) for usbd_ep_max_num
    usbd_lib_drv.o(i.USBD_DriverEndpointTransfer) refers to usbd_config_0.o(.constdata) for usbd_dev_ptr
    usbd_lib_drv.o(i.USBD_DriverEndpointTransfer) refers to usbd_config_0.o(.bss) for usbd_driver_ep_semaphore_id
    usbd_lib_drv.o(i.USBD_DriverEndpointTransferAbort) refers to usbd_config_0.o(i.USBD_SemaphoreAcquire) for USBD_SemaphoreAcquire
    usbd_lib_drv.o(i.USBD_DriverEndpointTransferAbort) refers to usbd_config_0.o(i.USBD_Delay) for USBD_Delay
    usbd_lib_drv.o(i.USBD_DriverEndpointTransferAbort) refers to usbd_config_0.o(i.USBD_SemaphoreRelease) for USBD_SemaphoreRelease
    usbd_lib_drv.o(i.USBD_DriverEndpointTransferAbort) refers to usbd_config_0.o(.constdata) for usbd_ep_max_num
    usbd_lib_drv.o(i.USBD_DriverEndpointTransferAbort) refers to usbd_config_0.o(.constdata) for usbd_dev_ptr
    usbd_lib_drv.o(i.USBD_DriverEndpointTransferAbort) refers to usbd_config_0.o(.bss) for usbd_driver_ep_semaphore_id
    usbd_lib_drv.o(i.USBD_DriverEndpointTransferGetResult) refers to usbd_config_0.o(i.USBD_SemaphoreAcquire) for USBD_SemaphoreAcquire
    usbd_lib_drv.o(i.USBD_DriverEndpointTransferGetResult) refers to usbd_config_0.o(i.USBD_Delay) for USBD_Delay
    usbd_lib_drv.o(i.USBD_DriverEndpointTransferGetResult) refers to usbd_config_0.o(i.USBD_SemaphoreRelease) for USBD_SemaphoreRelease
    usbd_lib_drv.o(i.USBD_DriverEndpointTransferGetResult) refers to usbd_config_0.o(.constdata) for usbd_ep_max_num
    usbd_lib_drv.o(i.USBD_DriverEndpointTransferGetResult) refers to usbd_config_0.o(.bss) for usbd_driver_ep_semaphore_id
    usbd_lib_drv.o(i.USBD_DriverEndpointTransferGetResult) refers to usbd_config_0.o(.constdata) for usbd_dev_ptr
    usbd_lib_drv.o(i.USBD_DriverEndpointUnconfigure) refers to usbd_lib_drv.o(i.USBD_DriverEndpointTransferAbort) for USBD_DriverEndpointTransferAbort
    usbd_lib_drv.o(i.USBD_DriverEndpointUnconfigure) refers to usbd_config_0.o(i.USBD_SemaphoreAcquire) for USBD_SemaphoreAcquire
    usbd_lib_drv.o(i.USBD_DriverEndpointUnconfigure) refers to usbd_config_0.o(i.USBD_Delay) for USBD_Delay
    usbd_lib_drv.o(i.USBD_DriverEndpointUnconfigure) refers to usbd_config_0.o(i.USBD_SemaphoreRelease) for USBD_SemaphoreRelease
    usbd_lib_drv.o(i.USBD_DriverEndpointUnconfigure) refers to usbd_config_0.o(.constdata) for usbd_ep_max_num
    usbd_lib_drv.o(i.USBD_DriverEndpointUnconfigure) refers to usbd_config_0.o(.constdata) for usbd_dev_ptr
    usbd_lib_drv.o(i.USBD_DriverEndpointUnconfigure) refers to usbd_config_0.o(.bss) for usbd_driver_ep_semaphore_id
    usbd_lib_drv.o(i.USBD_DriverGetCapabilities) refers to usbd_config_0.o(.constdata) for usbd_dev_ptr
    usbd_lib_drv.o(i.USBD_DriverGetFrameNumber) refers to usbd_config_0.o(i.USBD_SemaphoreAcquire) for USBD_SemaphoreAcquire
    usbd_lib_drv.o(i.USBD_DriverGetFrameNumber) refers to usbd_config_0.o(i.USBD_Delay) for USBD_Delay
    usbd_lib_drv.o(i.USBD_DriverGetFrameNumber) refers to usbd_config_0.o(i.USBD_SemaphoreRelease) for USBD_SemaphoreRelease
    usbd_lib_drv.o(i.USBD_DriverGetFrameNumber) refers to usbd_config_0.o(.data) for usbd_driver_semaphore_id
    usbd_lib_drv.o(i.USBD_DriverGetFrameNumber) refers to usbd_config_0.o(.constdata) for usbd_dev_ptr
    usbd_lib_drv.o(i.USBD_DriverGetVersion) refers to usbd_config_0.o(.constdata) for usbd_dev_ptr
    usbd_lib_drv.o(i.USBD_DriverInitialize) refers to usbd_config_0.o(i.USBD_SemaphoreAcquire) for USBD_SemaphoreAcquire
    usbd_lib_drv.o(i.USBD_DriverInitialize) refers to usbd_config_0.o(i.USBD_Delay) for USBD_Delay
    usbd_lib_drv.o(i.USBD_DriverInitialize) refers to usbd_config_0.o(i.USBD_SemaphoreRelease) for USBD_SemaphoreRelease
    usbd_lib_drv.o(i.USBD_DriverInitialize) refers to usbd_config_0.o(.data) for usbd_driver_semaphore_id
    usbd_lib_drv.o(i.USBD_DriverInitialize) refers to usbd_config_0.o(.constdata) for usbd_dev_ptr
    usbd_lib_drv.o(i.USBD_DriverPowerControl) refers to usbd_config_0.o(i.USBD_SemaphoreAcquire) for USBD_SemaphoreAcquire
    usbd_lib_drv.o(i.USBD_DriverPowerControl) refers to usbd_config_0.o(i.USBD_Delay) for USBD_Delay
    usbd_lib_drv.o(i.USBD_DriverPowerControl) refers to usbd_config_0.o(i.USBD_SemaphoreRelease) for USBD_SemaphoreRelease
    usbd_lib_drv.o(i.USBD_DriverPowerControl) refers to usbd_config_0.o(.data) for usbd_driver_semaphore_id
    usbd_lib_drv.o(i.USBD_DriverPowerControl) refers to usbd_config_0.o(.constdata) for usbd_dev_ptr
    usbd_lib_drv.o(i.USBD_DriverReadSetupPacket) refers to usbd_config_0.o(i.USBD_SemaphoreAcquire) for USBD_SemaphoreAcquire
    usbd_lib_drv.o(i.USBD_DriverReadSetupPacket) refers to usbd_config_0.o(i.USBD_Delay) for USBD_Delay
    usbd_lib_drv.o(i.USBD_DriverReadSetupPacket) refers to usbd_config_0.o(i.USBD_SemaphoreRelease) for USBD_SemaphoreRelease
    usbd_lib_drv.o(i.USBD_DriverReadSetupPacket) refers to usbd_config_0.o(.data) for usbd_driver_semaphore_id
    usbd_lib_drv.o(i.USBD_DriverReadSetupPacket) refers to usbd_config_0.o(.constdata) for usbd_dev_ptr
    usbd_lib_drv.o(i.USBD_DriverUninitialize) refers to usbd_config_0.o(i.USBD_SemaphoreAcquire) for USBD_SemaphoreAcquire
    usbd_lib_drv.o(i.USBD_DriverUninitialize) refers to usbd_config_0.o(i.USBD_Delay) for USBD_Delay
    usbd_lib_drv.o(i.USBD_DriverUninitialize) refers to usbd_config_0.o(i.USBD_SemaphoreRelease) for USBD_SemaphoreRelease
    usbd_lib_drv.o(i.USBD_DriverUninitialize) refers to usbd_config_0.o(.data) for usbd_driver_semaphore_id
    usbd_lib_drv.o(i.USBD_DriverUninitialize) refers to usbd_config_0.o(.constdata) for usbd_dev_ptr
    usbd_lib_drv.o(i.USBD_SignalDeviceEvent) refers to usbd_config_0.o(i.USBD_ThreadFlagsSet) for USBD_ThreadFlagsSet
    usbd_lib_drv.o(i.USBD_SignalDeviceEvent) refers to usbd_config_0.o(.data) for usbd_core_thread_id
    usbd_lib_drv.o(i.USBD_SignalEndpointEvent) refers to usbd_config_0.o(i.USBD_ThreadFlagsSet) for USBD_ThreadFlagsSet
    usbd_lib_drv.o(i.USBD_SignalEndpointEvent) refers to usbd_config_0.o(.constdata) for usbd_dev_ptr
    usbd_lib_drv.o(i.USBD_SignalEndpointEvent) refers to usbd_config_0.o(.constdata) for usbd_ep_max_num
    usbd_lib_drv.o(i.USBD_SignalEndpointEvent) refers to usbd_config_0.o(.data) for usbd_ep_thread_id_ptr
    usbd_lib_cdc.o(i.USBD_CDC0_Bulk_Thread) refers to usbd_lib_cdc.o(i.USBD_CDC_Bulk_Thread) for USBD_CDC_Bulk_Thread
    usbd_lib_cdc.o(i.USBD_CDC0_Int_Thread) refers to usbd_lib_cdc.o(i.USBD_CDC_Int_Thread) for USBD_CDC_Int_Thread
    usbd_lib_cdc.o(i.USBD_CDC1_Bulk_Thread) refers to usbd_lib_cdc.o(i.USBD_CDC_Bulk_Thread) for USBD_CDC_Bulk_Thread
    usbd_lib_cdc.o(i.USBD_CDC1_Int_Thread) refers to usbd_lib_cdc.o(i.USBD_CDC_Int_Thread) for USBD_CDC_Int_Thread
    usbd_lib_cdc.o(i.USBD_CDC2_Bulk_Thread) refers to usbd_lib_cdc.o(i.USBD_CDC_Bulk_Thread) for USBD_CDC_Bulk_Thread
    usbd_lib_cdc.o(i.USBD_CDC2_Int_Thread) refers to usbd_lib_cdc.o(i.USBD_CDC_Int_Thread) for USBD_CDC_Int_Thread
    usbd_lib_cdc.o(i.USBD_CDC3_Bulk_Thread) refers to usbd_lib_cdc.o(i.USBD_CDC_Bulk_Thread) for USBD_CDC_Bulk_Thread
    usbd_lib_cdc.o(i.USBD_CDC3_Int_Thread) refers to usbd_lib_cdc.o(i.USBD_CDC_Int_Thread) for USBD_CDC_Int_Thread
    usbd_lib_cdc.o(i.USBD_CDC_ACM_CoreGetLineCoding) refers to usbd_lib_cdc.o(i.USBD_CDC_CheckInstance) for USBD_CDC_CheckInstance
    usbd_lib_cdc.o(i.USBD_CDC_ACM_CoreGetLineCoding) refers to usbd_config_0.o(.constdata) for usbd_cdc_ptr
    usbd_lib_cdc.o(i.USBD_CDC_ACM_CoreGetLineCoding) refers to usbd_config_0.o(.constdata) for usbd_dev_ptr
    usbd_lib_cdc.o(i.USBD_CDC_ACM_CoreGetLineCoding) refers to usbd_config_0.o(.constdata) for fpUSBD_CDC_ACM_GetLineCoding
    usbd_lib_cdc.o(i.USBD_CDC_ACM_CoreGetLineCoding) refers to usbd_lib_cdc.o(.data) for .data
    usbd_lib_cdc.o(i.USBD_CDC_ACM_CoreSetControlLineState) refers to usbd_lib_cdc.o(i.USBD_CDC_CheckInstance) for USBD_CDC_CheckInstance
    usbd_lib_cdc.o(i.USBD_CDC_ACM_CoreSetControlLineState) refers to usbd_config_0.o(.constdata) for fpUSBD_CDC_ACM_SetControlLineState
    usbd_lib_cdc.o(i.USBD_CDC_ACM_CoreSetControlLineState) refers to usbd_config_0.o(.constdata) for usbd_cdc_ptr
    usbd_lib_cdc.o(i.USBD_CDC_ACM_CoreSetLineCoding) refers to usbd_lib_cdc.o(i.USBD_CDC_CheckInstance) for USBD_CDC_CheckInstance
    usbd_lib_cdc.o(i.USBD_CDC_ACM_CoreSetLineCoding) refers to usbd_config_0.o(.constdata) for usbd_cdc_ptr
    usbd_lib_cdc.o(i.USBD_CDC_ACM_CoreSetLineCoding) refers to usbd_config_0.o(.constdata) for usbd_dev_ptr
    usbd_lib_cdc.o(i.USBD_CDC_ACM_CoreSetLineCoding) refers to usbd_config_0.o(.constdata) for fpUSBD_CDC_ACM_SetLineCoding
    usbd_lib_cdc.o(i.USBD_CDC_ACM_CoreSetLineCoding) refers to usbd_lib_cdc.o(.data) for .data
    usbd_lib_cdc.o(i.USBD_CDC_ACM_DataAvailable) refers to usbd_lib_cdc.o(i.USBD_CDC_CheckInstance) for USBD_CDC_CheckInstance
    usbd_lib_cdc.o(i.USBD_CDC_ACM_DataAvailable) refers to usbd_config_0.o(.constdata) for usbd_cdc_ptr
    usbd_lib_cdc.o(i.USBD_CDC_ACM_GetChar) refers to usbd_lib_cdc.o(i.USBD_CDC_ACM_ReadData) for USBD_CDC_ACM_ReadData
    usbd_lib_cdc.o(i.USBD_CDC_ACM_GetChar) refers to usbd_lib_cdc.o(.data) for .data
    usbd_lib_cdc.o(i.USBD_CDC_ACM_Notify) refers to usbd_lib_cdc.o(i.USBD_CDC_CheckInstance) for USBD_CDC_CheckInstance
    usbd_lib_cdc.o(i.USBD_CDC_ACM_Notify) refers to usbd_config_0.o(i.USBD_ThreadFlagsSet) for USBD_ThreadFlagsSet
    usbd_lib_cdc.o(i.USBD_CDC_ACM_Notify) refers to usbd_config_0.o(.constdata) for usbd_cdc_ptr
    usbd_lib_cdc.o(i.USBD_CDC_ACM_Notify) refers to usbd_config_0.o(.constdata) for usbd_dev_ptr
    usbd_lib_cdc.o(i.USBD_CDC_ACM_Notify) refers to usbd_config_0.o(.data) for usbd_cdc_int_thread_id
    usbd_lib_cdc.o(i.USBD_CDC_ACM_PutChar) refers to usbd_lib_cdc.o(i.USBD_CDC_ACM_WriteData) for USBD_CDC_ACM_WriteData
    usbd_lib_cdc.o(i.USBD_CDC_ACM_PutChar) refers to usbd_lib_cdc.o(.data) for .data
    usbd_lib_cdc.o(i.USBD_CDC_ACM_ReadData) refers to usbd_lib_cdc.o(i.USBD_CDC_CheckInstance) for USBD_CDC_CheckInstance
    usbd_lib_cdc.o(i.USBD_CDC_ACM_ReadData) refers to rt_memcpy_v6.o(.text) for __aeabi_memcpy
    usbd_lib_cdc.o(i.USBD_CDC_ACM_ReadData) refers to usbd_config_0.o(i.USBD_ThreadFlagsSet) for USBD_ThreadFlagsSet
    usbd_lib_cdc.o(i.USBD_CDC_ACM_ReadData) refers to usbd_config_0.o(.constdata) for usbd_cdc_ptr
    usbd_lib_cdc.o(i.USBD_CDC_ACM_ReadData) refers to usbd_config_0.o(.constdata) for usbd_dev_ptr
    usbd_lib_cdc.o(i.USBD_CDC_ACM_ReadData) refers to usbd_config_0.o(.data) for usbd_cdc_bulk_thread_id
    usbd_lib_cdc.o(i.USBD_CDC_ACM_WriteData) refers to usbd_lib_cdc.o(i.USBD_CDC_CheckInstance) for USBD_CDC_CheckInstance
    usbd_lib_cdc.o(i.USBD_CDC_ACM_WriteData) refers to rt_memcpy_v6.o(.text) for __aeabi_memcpy
    usbd_lib_cdc.o(i.USBD_CDC_ACM_WriteData) refers to usbd_config_0.o(i.USBD_ThreadFlagsSet) for USBD_ThreadFlagsSet
    usbd_lib_cdc.o(i.USBD_CDC_ACM_WriteData) refers to usbd_config_0.o(.constdata) for usbd_cdc_ptr
    usbd_lib_cdc.o(i.USBD_CDC_ACM_WriteData) refers to usbd_config_0.o(.data) for usbd_cdc_bulk_thread_id
    usbd_lib_cdc.o(i.USBD_CDC_Bulk_Thread) refers to usbd_lib_cdc.o(i.USBD_CDC_CheckInstance) for USBD_CDC_CheckInstance
    usbd_lib_cdc.o(i.USBD_CDC_Bulk_Thread) refers to usbd_config_0.o(i.USBD_ThreadFlagsWait) for USBD_ThreadFlagsWait
    usbd_lib_cdc.o(i.USBD_CDC_Bulk_Thread) refers to usbd_lib_cdc.o(i.USBD_CDC_EpBulkOut) for USBD_CDC_EpBulkOut
    usbd_lib_cdc.o(i.USBD_CDC_Bulk_Thread) refers to usbd_lib_cdc.o(i.USBD_CDC_EpBulkIn) for USBD_CDC_EpBulkIn
    usbd_lib_cdc.o(i.USBD_CDC_CheckInstance) refers to usbd_config_0.o(.constdata) for usbd_cdc_num
    usbd_lib_cdc.o(i.USBD_CDC_CheckInstance) refers to usbd_config_0.o(.constdata) for usbd_cdc_ptr
    usbd_lib_cdc.o(i.USBD_CDC_CheckInstance) refers to usbd_config_0.o(.constdata) for usbd_dev_num
    usbd_lib_cdc.o(i.USBD_CDC_CheckInstance) refers to usbd_config_0.o(.constdata) for usbd_dev_ptr
    usbd_lib_cdc.o(i.USBD_CDC_EndpointStart) refers to usbd_lib_cdc.o(i.USBD_CDC_CheckInstance) for USBD_CDC_CheckInstance
    usbd_lib_cdc.o(i.USBD_CDC_EndpointStart) refers to usbd_config_0.o(i.USBD_ThreadFlagsSet) for USBD_ThreadFlagsSet
    usbd_lib_cdc.o(i.USBD_CDC_EndpointStart) refers to usbd_config_0.o(.constdata) for usbd_cdc_ptr
    usbd_lib_cdc.o(i.USBD_CDC_EndpointStart) refers to usbd_config_0.o(.constdata) for usbd_dev_ptr
    usbd_lib_cdc.o(i.USBD_CDC_EndpointStart) refers to usbd_config_0.o(.constdata) for fpUSBD_CDC_NCM_Start
    usbd_lib_cdc.o(i.USBD_CDC_EndpointStart) refers to usbd_config_0.o(.data) for usbd_cdc_bulk_thread_id
    usbd_lib_cdc.o(i.USBD_CDC_EndpointStop) refers to usbd_lib_cdc.o(i.USBD_CDC_CheckInstance) for USBD_CDC_CheckInstance
    usbd_lib_cdc.o(i.USBD_CDC_EndpointStop) refers to usbd_config_0.o(.constdata) for usbd_cdc_ptr
    usbd_lib_cdc.o(i.USBD_CDC_EndpointStop) refers to usbd_config_0.o(.constdata) for fpUSBD_CDC_NCM_Stop
    usbd_lib_cdc.o(i.USBD_CDC_EpBulkIn) refers to usbd_lib_cdc.o(i.USBD_CDC_CheckInstance) for USBD_CDC_CheckInstance
    usbd_lib_cdc.o(i.USBD_CDC_EpBulkIn) refers to usbd_lib_drv.o(i.USBD_DriverEndpointTransferGetResult) for USBD_DriverEndpointTransferGetResult
    usbd_lib_cdc.o(i.USBD_CDC_EpBulkIn) refers to rt_memcpy_v6.o(.text) for __aeabi_memcpy
    usbd_lib_cdc.o(i.USBD_CDC_EpBulkIn) refers to usbd_lib_drv.o(i.USBD_DriverEndpointTransfer) for USBD_DriverEndpointTransfer
    usbd_lib_cdc.o(i.USBD_CDC_EpBulkIn) refers to usbd_config_0.o(.constdata) for usbd_cdc_ptr
    usbd_lib_cdc.o(i.USBD_CDC_EpBulkIn) refers to usbd_config_0.o(.constdata) for usbd_dev_ptr
    usbd_lib_cdc.o(i.USBD_CDC_EpBulkIn) refers to usbd_config_0.o(.constdata) for fpUSBD_CDC_ACM_DataSent
    usbd_lib_cdc.o(i.USBD_CDC_EpBulkIn) refers to usbd_config_0.o(.constdata) for fpUSBD_CDC_NCM_NTB_IN_Sent
    usbd_lib_cdc.o(i.USBD_CDC_EpBulkOut) refers to usbd_lib_cdc.o(i.USBD_CDC_CheckInstance) for USBD_CDC_CheckInstance
    usbd_lib_cdc.o(i.USBD_CDC_EpBulkOut) refers to usbd_lib_drv.o(i.USBD_DriverEndpointTransferGetResult) for USBD_DriverEndpointTransferGetResult
    usbd_lib_cdc.o(i.USBD_CDC_EpBulkOut) refers to rt_memcpy_v6.o(.text) for __aeabi_memcpy
    usbd_lib_cdc.o(i.USBD_CDC_EpBulkOut) refers to usbd_lib_drv.o(i.USBD_DriverEndpointTransfer) for USBD_DriverEndpointTransfer
    usbd_lib_cdc.o(i.USBD_CDC_EpBulkOut) refers to usbd_config_0.o(.constdata) for usbd_cdc_ptr
    usbd_lib_cdc.o(i.USBD_CDC_EpBulkOut) refers to usbd_config_0.o(.constdata) for usbd_dev_ptr
    usbd_lib_cdc.o(i.USBD_CDC_EpBulkOut) refers to usbd_config_0.o(.constdata) for fpUSBD_CDC_ACM_DataReceived
    usbd_lib_cdc.o(i.USBD_CDC_EpBulkOut) refers to usbd_config_0.o(.constdata) for fpUSBD_CDC_NCM_NTB_OUT_Received
    usbd_lib_cdc.o(i.USBD_CDC_Initialize) refers to usbd_lib_cdc.o(i.USBD_CDC_CheckInstance) for USBD_CDC_CheckInstance
    usbd_lib_cdc.o(i.USBD_CDC_Initialize) refers to usbd_config_0.o(i.USBD_ThreadCreate) for USBD_ThreadCreate
    usbd_lib_cdc.o(i.USBD_CDC_Initialize) refers to usbd_config_0.o(.constdata) for usbd_cdc_ptr
    usbd_lib_cdc.o(i.USBD_CDC_Initialize) refers to usbd_config_0.o(.constdata) for fpUSBD_CDC_NCM_Initialize
    usbd_lib_cdc.o(i.USBD_CDC_Initialize) refers to usbd_config_0.o(.data) for usbd_cdc_int_thread_id
    usbd_lib_cdc.o(i.USBD_CDC_Initialize) refers to usbd_config_0.o(.constdata) for fpUSBD_CDC_ACM_Initialize
    usbd_lib_cdc.o(i.USBD_CDC_Initialize) refers to usbd_config_0.o(.data) for usbd_cdc_bulk_thread_id
    usbd_lib_cdc.o(i.USBD_CDC_Int_Thread) refers to usbd_lib_cdc.o(i.USBD_CDC_CheckInstance) for USBD_CDC_CheckInstance
    usbd_lib_cdc.o(i.USBD_CDC_Int_Thread) refers to usbd_config_0.o(i.USBD_ThreadFlagsWait) for USBD_ThreadFlagsWait
    usbd_lib_cdc.o(i.USBD_CDC_Int_Thread) refers to usbd_lib_drv.o(i.USBD_DriverEndpointTransferGetResult) for USBD_DriverEndpointTransferGetResult
    usbd_lib_cdc.o(i.USBD_CDC_Int_Thread) refers to usbd_lib_drv.o(i.USBD_DriverEndpointTransfer) for USBD_DriverEndpointTransfer
    usbd_lib_cdc.o(i.USBD_CDC_Int_Thread) refers to usbd_config_0.o(.constdata) for usbd_cdc_ptr
    usbd_lib_cdc.o(i.USBD_CDC_NCM_CoreGetCrcMode) refers to usbd_lib_cdc.o(i.USBD_CDC_CheckInstance) for USBD_CDC_CheckInstance
    usbd_lib_cdc.o(i.USBD_CDC_NCM_CoreGetCrcMode) refers to usbd_config_0.o(.constdata) for fpUSBD_CDC_NCM_GetCrcMode
    usbd_lib_cdc.o(i.USBD_CDC_NCM_CoreGetEthernetPowerManagementPatternFilter) refers to usbd_lib_cdc.o(i.USBD_CDC_CheckInstance) for USBD_CDC_CheckInstance
    usbd_lib_cdc.o(i.USBD_CDC_NCM_CoreGetEthernetPowerManagementPatternFilter) refers to usbd_config_0.o(.constdata) for fpUSBD_CDC_NCM_GetEthernetPowerManagementPatternFilter
    usbd_lib_cdc.o(i.USBD_CDC_NCM_CoreGetEthernetStatistic) refers to usbd_lib_cdc.o(i.USBD_CDC_CheckInstance) for USBD_CDC_CheckInstance
    usbd_lib_cdc.o(i.USBD_CDC_NCM_CoreGetEthernetStatistic) refers to usbd_config_0.o(.constdata) for fpUSBD_CDC_NCM_GetEthernetStatistic
    usbd_lib_cdc.o(i.USBD_CDC_NCM_CoreGetMaxDatagramSize) refers to usbd_lib_cdc.o(i.USBD_CDC_CheckInstance) for USBD_CDC_CheckInstance
    usbd_lib_cdc.o(i.USBD_CDC_NCM_CoreGetMaxDatagramSize) refers to usbd_config_0.o(.constdata) for fpUSBD_CDC_NCM_GetMaxDatagramSize
    usbd_lib_cdc.o(i.USBD_CDC_NCM_CoreGetNetAddress) refers to usbd_lib_cdc.o(i.USBD_CDC_CheckInstance) for USBD_CDC_CheckInstance
    usbd_lib_cdc.o(i.USBD_CDC_NCM_CoreGetNetAddress) refers to usbd_config_0.o(.constdata) for fpUSBD_CDC_NCM_GetNetAddress
    usbd_lib_cdc.o(i.USBD_CDC_NCM_CoreGetNtbFormat) refers to usbd_lib_cdc.o(i.USBD_CDC_CheckInstance) for USBD_CDC_CheckInstance
    usbd_lib_cdc.o(i.USBD_CDC_NCM_CoreGetNtbFormat) refers to usbd_config_0.o(.constdata) for fpUSBD_CDC_NCM_GetNtbFormat
    usbd_lib_cdc.o(i.USBD_CDC_NCM_CoreGetNtbInputSize) refers to usbd_lib_cdc.o(i.USBD_CDC_CheckInstance) for USBD_CDC_CheckInstance
    usbd_lib_cdc.o(i.USBD_CDC_NCM_CoreGetNtbInputSize) refers to usbd_config_0.o(.constdata) for fpUSBD_CDC_NCM_GetNtbInputSize
    usbd_lib_cdc.o(i.USBD_CDC_NCM_CoreGetNtbParameters) refers to usbd_lib_cdc.o(i.USBD_CDC_CheckInstance) for USBD_CDC_CheckInstance
    usbd_lib_cdc.o(i.USBD_CDC_NCM_CoreGetNtbParameters) refers to usbd_config_0.o(.constdata) for fpUSBD_CDC_NCM_GetNtbParameters
    usbd_lib_cdc.o(i.USBD_CDC_NCM_CoreSetCrcMode) refers to usbd_lib_cdc.o(i.USBD_CDC_CheckInstance) for USBD_CDC_CheckInstance
    usbd_lib_cdc.o(i.USBD_CDC_NCM_CoreSetCrcMode) refers to usbd_config_0.o(.constdata) for fpUSBD_CDC_NCM_SetCrcMode
    usbd_lib_cdc.o(i.USBD_CDC_NCM_CoreSetCrcMode) refers to usbd_config_0.o(.constdata) for usbd_cdc_ptr
    usbd_lib_cdc.o(i.USBD_CDC_NCM_CoreSetEthernetMulticastFilters) refers to usbd_lib_cdc.o(i.USBD_CDC_CheckInstance) for USBD_CDC_CheckInstance
    usbd_lib_cdc.o(i.USBD_CDC_NCM_CoreSetEthernetMulticastFilters) refers to usbd_config_0.o(.constdata) for fpUSBD_CDC_NCM_SetEthernetMulticastFilters
    usbd_lib_cdc.o(i.USBD_CDC_NCM_CoreSetEthernetPacketFilter) refers to usbd_lib_cdc.o(i.USBD_CDC_CheckInstance) for USBD_CDC_CheckInstance
    usbd_lib_cdc.o(i.USBD_CDC_NCM_CoreSetEthernetPacketFilter) refers to usbd_config_0.o(.constdata) for fpUSBD_CDC_NCM_SetEthernetPacketFilter
    usbd_lib_cdc.o(i.USBD_CDC_NCM_CoreSetEthernetPowerManagementPatternFilter) refers to usbd_lib_cdc.o(i.USBD_CDC_CheckInstance) for USBD_CDC_CheckInstance
    usbd_lib_cdc.o(i.USBD_CDC_NCM_CoreSetEthernetPowerManagementPatternFilter) refers to usbd_config_0.o(.constdata) for fpUSBD_CDC_NCM_SetEthernetPowerManagementPatternFilter
    usbd_lib_cdc.o(i.USBD_CDC_NCM_CoreSetMaxDatagramSize) refers to usbd_lib_cdc.o(i.USBD_CDC_CheckInstance) for USBD_CDC_CheckInstance
    usbd_lib_cdc.o(i.USBD_CDC_NCM_CoreSetMaxDatagramSize) refers to usbd_config_0.o(.constdata) for fpUSBD_CDC_NCM_SetMaxDatagramSize
    usbd_lib_cdc.o(i.USBD_CDC_NCM_CoreSetMaxDatagramSize) refers to usbd_config_0.o(.constdata) for usbd_cdc_ptr
    usbd_lib_cdc.o(i.USBD_CDC_NCM_CoreSetNetAddress) refers to usbd_lib_cdc.o(i.USBD_CDC_CheckInstance) for USBD_CDC_CheckInstance
    usbd_lib_cdc.o(i.USBD_CDC_NCM_CoreSetNetAddress) refers to usbd_config_0.o(.constdata) for fpUSBD_CDC_NCM_SetNetAddress
    usbd_lib_cdc.o(i.USBD_CDC_NCM_CoreSetNtbFormat) refers to usbd_lib_cdc.o(i.USBD_CDC_CheckInstance) for USBD_CDC_CheckInstance
    usbd_lib_cdc.o(i.USBD_CDC_NCM_CoreSetNtbFormat) refers to usbd_config_0.o(.constdata) for fpUSBD_CDC_NCM_SetNtbFormat
    usbd_lib_cdc.o(i.USBD_CDC_NCM_CoreSetNtbFormat) refers to usbd_config_0.o(.constdata) for usbd_cdc_ptr
    usbd_lib_cdc.o(i.USBD_CDC_NCM_CoreSetNtbInputSize) refers to usbd_lib_cdc.o(i.USBD_CDC_CheckInstance) for USBD_CDC_CheckInstance
    usbd_lib_cdc.o(i.USBD_CDC_NCM_CoreSetNtbInputSize) refers to usbd_config_0.o(.constdata) for fpUSBD_CDC_NCM_SetNtbInputSize
    usbd_lib_cdc.o(i.USBD_CDC_NCM_CoreSetNtbInputSize) refers to usbd_config_0.o(.constdata) for usbd_cdc_ptr
    usbd_lib_cdc.o(i.USBD_CDC_NCM_NTB_IN_CreateNDP) refers to usbd_lib_cdc.o(i.USBD_CDC_CheckInstance) for USBD_CDC_CheckInstance
    usbd_lib_cdc.o(i.USBD_CDC_NCM_NTB_IN_CreateNDP) refers to rt_memclr.o(.text) for __aeabi_memclr
    usbd_lib_cdc.o(i.USBD_CDC_NCM_NTB_IN_CreateNDP) refers to usbd_config_0.o(.constdata) for usbd_cdc_ptr
    usbd_lib_cdc.o(i.USBD_CDC_NCM_NTB_IN_Initialize) refers to usbd_lib_cdc.o(i.USBD_CDC_CheckInstance) for USBD_CDC_CheckInstance
    usbd_lib_cdc.o(i.USBD_CDC_NCM_NTB_IN_Initialize) refers to rt_memcpy_v6.o(.text) for __aeabi_memcpy
    usbd_lib_cdc.o(i.USBD_CDC_NCM_NTB_IN_Initialize) refers to usbd_config_0.o(.constdata) for usbd_cdc_ptr
    usbd_lib_cdc.o(i.USBD_CDC_NCM_NTB_IN_Initialize) refers to usbd_lib_cdc.o(.constdata) for .constdata
    usbd_lib_cdc.o(i.USBD_CDC_NCM_NTB_IN_IsSent) refers to usbd_lib_cdc.o(i.USBD_CDC_CheckInstance) for USBD_CDC_CheckInstance
    usbd_lib_cdc.o(i.USBD_CDC_NCM_NTB_IN_IsSent) refers to usbd_config_0.o(.constdata) for usbd_cdc_ptr
    usbd_lib_cdc.o(i.USBD_CDC_NCM_NTB_IN_RawSend) refers to usbd_lib_cdc.o(i.USBD_CDC_CheckInstance) for USBD_CDC_CheckInstance
    usbd_lib_cdc.o(i.USBD_CDC_NCM_NTB_IN_RawSend) refers to usbd_config_0.o(i.USBD_ThreadFlagsSet) for USBD_ThreadFlagsSet
    usbd_lib_cdc.o(i.USBD_CDC_NCM_NTB_IN_RawSend) refers to usbd_config_0.o(.constdata) for usbd_cdc_ptr
    usbd_lib_cdc.o(i.USBD_CDC_NCM_NTB_IN_RawSend) refers to usbd_config_0.o(.constdata) for usbd_dev_ptr
    usbd_lib_cdc.o(i.USBD_CDC_NCM_NTB_IN_RawSend) refers to usbd_config_0.o(.data) for usbd_cdc_bulk_thread_id
    usbd_lib_cdc.o(i.USBD_CDC_NCM_NTB_IN_Send) refers to usbd_lib_cdc.o(i.USBD_CDC_CheckInstance) for USBD_CDC_CheckInstance
    usbd_lib_cdc.o(i.USBD_CDC_NCM_NTB_IN_Send) refers to usbd_config_0.o(i.USBD_ThreadFlagsSet) for USBD_ThreadFlagsSet
    usbd_lib_cdc.o(i.USBD_CDC_NCM_NTB_IN_Send) refers to usbd_config_0.o(.constdata) for usbd_cdc_ptr
    usbd_lib_cdc.o(i.USBD_CDC_NCM_NTB_IN_Send) refers to usbd_config_0.o(.data) for usbd_cdc_bulk_thread_id
    usbd_lib_cdc.o(i.USBD_CDC_NCM_NTB_IN_WriteDatagram) refers to usbd_lib_cdc.o(i.USBD_CDC_CheckInstance) for USBD_CDC_CheckInstance
    usbd_lib_cdc.o(i.USBD_CDC_NCM_NTB_IN_WriteDatagram) refers to rt_memcpy_v6.o(.text) for __aeabi_memcpy
    usbd_lib_cdc.o(i.USBD_CDC_NCM_NTB_IN_WriteDatagram) refers to usbd_config_0.o(.constdata) for usbd_cdc_ptr
    usbd_lib_cdc.o(i.USBD_CDC_NCM_NTB_OUT_GetDatagramSize) refers to usbd_lib_cdc.o(i.USBD_CDC_CheckInstance) for USBD_CDC_CheckInstance
    usbd_lib_cdc.o(i.USBD_CDC_NCM_NTB_OUT_GetDatagramSize) refers to usbd_config_0.o(.constdata) for usbd_cdc_ptr
    usbd_lib_cdc.o(i.USBD_CDC_NCM_NTB_OUT_IsReceived) refers to usbd_lib_cdc.o(i.USBD_CDC_CheckInstance) for USBD_CDC_CheckInstance
    usbd_lib_cdc.o(i.USBD_CDC_NCM_NTB_OUT_IsReceived) refers to usbd_config_0.o(.constdata) for usbd_cdc_ptr
    usbd_lib_cdc.o(i.USBD_CDC_NCM_NTB_OUT_ProcessNDP) refers to usbd_lib_cdc.o(i.USBD_CDC_CheckInstance) for USBD_CDC_CheckInstance
    usbd_lib_cdc.o(i.USBD_CDC_NCM_NTB_OUT_ProcessNDP) refers to usbd_config_0.o(.constdata) for usbd_cdc_ptr
    usbd_lib_cdc.o(i.USBD_CDC_NCM_NTB_OUT_RawGetSize) refers to usbd_lib_cdc.o(i.USBD_CDC_CheckInstance) for USBD_CDC_CheckInstance
    usbd_lib_cdc.o(i.USBD_CDC_NCM_NTB_OUT_RawGetSize) refers to usbd_lib_drv.o(i.USBD_DriverEndpointTransferGetResult) for USBD_DriverEndpointTransferGetResult
    usbd_lib_cdc.o(i.USBD_CDC_NCM_NTB_OUT_RawGetSize) refers to usbd_config_0.o(.constdata) for usbd_cdc_ptr
    usbd_lib_cdc.o(i.USBD_CDC_NCM_NTB_OUT_RawReceive) refers to usbd_lib_cdc.o(i.USBD_CDC_CheckInstance) for USBD_CDC_CheckInstance
    usbd_lib_cdc.o(i.USBD_CDC_NCM_NTB_OUT_RawReceive) refers to usbd_config_0.o(i.USBD_ThreadFlagsSet) for USBD_ThreadFlagsSet
    usbd_lib_cdc.o(i.USBD_CDC_NCM_NTB_OUT_RawReceive) refers to usbd_config_0.o(.constdata) for usbd_cdc_ptr
    usbd_lib_cdc.o(i.USBD_CDC_NCM_NTB_OUT_RawReceive) refers to usbd_config_0.o(.data) for usbd_cdc_bulk_thread_id
    usbd_lib_cdc.o(i.USBD_CDC_NCM_NTB_OUT_ReadDatagram) refers to usbd_lib_cdc.o(i.USBD_CDC_CheckInstance) for USBD_CDC_CheckInstance
    usbd_lib_cdc.o(i.USBD_CDC_NCM_NTB_OUT_ReadDatagram) refers to rt_memcpy_v6.o(.text) for __aeabi_memcpy
    usbd_lib_cdc.o(i.USBD_CDC_NCM_NTB_OUT_ReadDatagram) refers to usbd_config_0.o(.constdata) for usbd_cdc_ptr
    usbd_lib_cdc.o(i.USBD_CDC_NCM_NTB_OUT_Release) refers to usbd_lib_cdc.o(i.USBD_CDC_CheckInstance) for USBD_CDC_CheckInstance
    usbd_lib_cdc.o(i.USBD_CDC_NCM_NTB_OUT_Release) refers to usbd_config_0.o(i.USBD_ThreadFlagsSet) for USBD_ThreadFlagsSet
    usbd_lib_cdc.o(i.USBD_CDC_NCM_NTB_OUT_Release) refers to usbd_config_0.o(.constdata) for usbd_cdc_ptr
    usbd_lib_cdc.o(i.USBD_CDC_NCM_NTB_OUT_Release) refers to usbd_config_0.o(.data) for usbd_cdc_bulk_thread_id
    usbd_lib_cdc.o(i.USBD_CDC_NCM_Notify_ConnectionSpeedChange) refers to usbd_lib_cdc.o(i.USBD_CDC_CheckInstance) for USBD_CDC_CheckInstance
    usbd_lib_cdc.o(i.USBD_CDC_NCM_Notify_ConnectionSpeedChange) refers to usbd_config_0.o(i.USBD_ThreadFlagsSet) for USBD_ThreadFlagsSet
    usbd_lib_cdc.o(i.USBD_CDC_NCM_Notify_ConnectionSpeedChange) refers to usbd_config_0.o(.constdata) for usbd_cdc_ptr
    usbd_lib_cdc.o(i.USBD_CDC_NCM_Notify_ConnectionSpeedChange) refers to usbd_config_0.o(.constdata) for usbd_dev_ptr
    usbd_lib_cdc.o(i.USBD_CDC_NCM_Notify_ConnectionSpeedChange) refers to usbd_config_0.o(.data) for usbd_cdc_int_thread_id
    usbd_lib_cdc.o(i.USBD_CDC_NCM_Notify_NetworkConnection) refers to usbd_lib_cdc.o(i.USBD_CDC_CheckInstance) for USBD_CDC_CheckInstance
    usbd_lib_cdc.o(i.USBD_CDC_NCM_Notify_NetworkConnection) refers to usbd_config_0.o(i.USBD_ThreadFlagsSet) for USBD_ThreadFlagsSet
    usbd_lib_cdc.o(i.USBD_CDC_NCM_Notify_NetworkConnection) refers to usbd_config_0.o(.constdata) for usbd_cdc_ptr
    usbd_lib_cdc.o(i.USBD_CDC_NCM_Notify_NetworkConnection) refers to usbd_config_0.o(.constdata) for usbd_dev_ptr
    usbd_lib_cdc.o(i.USBD_CDC_NCM_Notify_NetworkConnection) refers to usbd_config_0.o(.data) for usbd_cdc_int_thread_id
    usbd_lib_cdc.o(i.USBD_CDC_Reset) refers to usbd_lib_cdc.o(i.USBD_CDC_CheckInstance) for USBD_CDC_CheckInstance
    usbd_lib_cdc.o(i.USBD_CDC_Reset) refers to rt_memclr_w.o(.text) for __aeabi_memclr4
    usbd_lib_cdc.o(i.USBD_CDC_Reset) refers to usbd_config_0.o(.constdata) for usbd_cdc_ptr
    usbd_lib_cdc.o(i.USBD_CDC_Reset) refers to usbd_config_0.o(.constdata) for fpUSBD_CDC_NCM_Reset
    usbd_lib_cdc.o(i.USBD_CDC_Reset) refers to usbd_lib_cdc.o(.data) for .data
    usbd_lib_cdc.o(i.USBD_CDC_Reset) refers to usbd_config_0.o(.constdata) for fpUSBD_CDC_ACM_Reset
    usbd_lib_cdc.o(i.USBD_CDC_Reset) refers to usbd_config_0.o(.constdata) for fpUSBD_CDC_ACM_SetLineCoding
    usbd_lib_cdc.o(i.USBD_CDC_Uninitialize) refers to usbd_lib_cdc.o(i.USBD_CDC_CheckInstance) for USBD_CDC_CheckInstance
    usbd_lib_cdc.o(i.USBD_CDC_Uninitialize) refers to usbd_config_0.o(i.USBD_ThreadTerminate) for USBD_ThreadTerminate
    usbd_lib_cdc.o(i.USBD_CDC_Uninitialize) refers to usbd_config_0.o(.data) for usbd_cdc_bulk_thread_id
    usbd_lib_cdc.o(i.USBD_CDC_Uninitialize) refers to usbd_config_0.o(.data) for usbd_cdc_int_thread_id
    usbd_lib_cdc.o(i.USBD_CDC_Uninitialize) refers to usbd_config_0.o(.constdata) for usbd_cdc_ptr
    usbd_lib_cdc.o(i.USBD_CDC_Uninitialize) refers to usbd_config_0.o(.constdata) for fpUSBD_CDC_NCM_Uninitialize
    usbd_lib_cdc.o(i.USBD_CDC_Uninitialize) refers to usbd_config_0.o(.constdata) for fpUSBD_CDC_ACM_Uninitialize
    rt_system.o(i.os_tick_init) refers to rtx_conf_cm.o(.constdata) for os_trv
    rt_system.o(i.os_tick_val) refers to rtx_conf_cm.o(.constdata) for os_trv
    rt_system.o(i.rt_pop_req) refers to rt_list.o(i.rt_put_rdy_first) for rt_put_rdy_first
    rt_system.o(i.rt_pop_req) refers to rt_semaphore.o(i.rt_sem_psh) for rt_sem_psh
    rt_system.o(i.rt_pop_req) refers to rt_list.o(i.rt_get_first) for rt_get_first
    rt_system.o(i.rt_pop_req) refers to rt_task.o(i.rt_switch_req) for rt_switch_req
    rt_system.o(i.rt_pop_req) refers to rt_event.o(i.rt_evt_psh) for rt_evt_psh
    rt_system.o(i.rt_pop_req) refers to rt_mailbox.o(i.rt_mbx_psh) for rt_mbx_psh
    rt_system.o(i.rt_pop_req) refers to rt_task.o(.data) for os_tsk
    rt_system.o(i.rt_pop_req) refers to rtx_conf_cm.o(.bss) for os_fifo
    rt_system.o(i.rt_pop_req) refers to rt_list.o(.bss) for os_rdy
    rt_system.o(i.rt_psh_req) refers to rt_system.o(.data) for .data
    rt_system.o(i.rt_resume) refers to rt_list.o(i.rt_put_rdy_first) for rt_put_rdy_first
    rt_system.o(i.rt_resume) refers to rt_list.o(i.rt_dec_dly) for rt_dec_dly
    rt_system.o(i.rt_resume) refers to rt_cmsis.o(i.sysUserTimerUpdate) for sysUserTimerUpdate
    rt_system.o(i.rt_resume) refers to rt_list.o(i.rt_get_first) for rt_get_first
    rt_system.o(i.rt_resume) refers to rt_task.o(i.rt_switch_req) for rt_switch_req
    rt_system.o(i.rt_resume) refers to rt_system.o(i.rt_tsk_unlock) for rt_tsk_unlock
    rt_system.o(i.rt_resume) refers to rt_task.o(.data) for os_tsk
    rt_system.o(i.rt_resume) refers to rt_robin.o(.data) for os_robin
    rt_system.o(i.rt_resume) refers to rt_list.o(.bss) for os_dly
    rt_system.o(i.rt_resume) refers to rt_time.o(.data) for os_time
    rt_system.o(i.rt_stk_check) refers to rtx_conf_cm.o(i.os_error) for os_error
    rt_system.o(i.rt_stk_check) refers to rt_task.o(.data) for os_tsk
    rt_system.o(i.rt_suspend) refers to rt_system.o(i.rt_tsk_lock) for rt_tsk_lock
    rt_system.o(i.rt_suspend) refers to rt_cmsis.o(i.sysUserTimerWakeupTime) for sysUserTimerWakeupTime
    rt_system.o(i.rt_suspend) refers to rt_list.o(.bss) for os_dly
    rt_system.o(i.rt_systick) refers to rt_list.o(i.rt_put_rdy_first) for rt_put_rdy_first
    rt_system.o(i.rt_systick) refers to rt_robin.o(i.rt_chk_robin) for rt_chk_robin
    rt_system.o(i.rt_systick) refers to rt_list.o(i.rt_dec_dly) for rt_dec_dly
    rt_system.o(i.rt_systick) refers to rt_cmsis.o(i.sysTimerTick) for sysTimerTick
    rt_system.o(i.rt_systick) refers to rt_list.o(i.rt_get_first) for rt_get_first
    rt_system.o(i.rt_systick) refers to rt_task.o(i.rt_switch_req) for rt_switch_req
    rt_system.o(i.rt_systick) refers to rt_task.o(.data) for os_tsk
    rt_system.o(i.rt_systick) refers to rt_time.o(.data) for os_time
    rt_system.o(i.rt_systick) refers to rt_list.o(.bss) for os_rdy
    rt_system.o(i.rt_tsk_lock) refers to rt_system.o(.data) for .data
    rt_system.o(i.rt_tsk_unlock) refers to rt_system.o(.data) for .data
    rt_event.o(i.isr_evt_set) refers to rt_list.o(i.rt_psq_enq) for rt_psq_enq
    rt_event.o(i.isr_evt_set) refers to rt_system.o(i.rt_psh_req) for rt_psh_req
    rt_event.o(i.isr_evt_set) refers to rtx_conf_cm.o(.bss) for os_active_TCB
    rt_event.o(i.rt_evt_clr) refers to rtx_conf_cm.o(.bss) for os_active_TCB
    rt_event.o(i.rt_evt_get) refers to rt_task.o(.data) for os_tsk
    rt_event.o(i.rt_evt_psh) refers to rt_list.o(i.rt_rmv_dly) for rt_rmv_dly
    rt_event.o(i.rt_evt_psh) refers to hal_cm.o(i.rt_ret_val2) for rt_ret_val2
    rt_event.o(i.rt_evt_psh) refers to rt_list.o(i.rt_put_prio) for rt_put_prio
    rt_event.o(i.rt_evt_psh) refers to rt_list.o(.bss) for os_rdy
    rt_event.o(i.rt_evt_set) refers to rt_list.o(i.rt_rmv_dly) for rt_rmv_dly
    rt_event.o(i.rt_evt_set) refers to hal_cm.o(i.rt_ret_val2) for rt_ret_val2
    rt_event.o(i.rt_evt_set) refers to rt_task.o(i.rt_dispatch) for rt_dispatch
    rt_event.o(i.rt_evt_set) refers to rtx_conf_cm.o(.bss) for os_active_TCB
    rt_event.o(i.rt_evt_wait) refers to rt_task.o(i.rt_block) for rt_block
    rt_event.o(i.rt_evt_wait) refers to rt_task.o(.data) for os_tsk
    rt_list.o(i.rt_dec_dly) refers to rt_list.o(i.rt_put_prio) for rt_put_prio
    rt_list.o(i.rt_dec_dly) refers to rt_list.o(.bss) for .bss
    rt_list.o(i.rt_dec_dly) refers to rt_time.o(.data) for os_time
    rt_list.o(i.rt_get_same_rdy_prio) refers to rt_list.o(.bss) for .bss
    rt_list.o(i.rt_get_same_rdy_prio) refers to rt_task.o(.data) for os_tsk
    rt_list.o(i.rt_psq_enq) refers to rtx_conf_cm.o(i.os_error) for os_error
    rt_list.o(i.rt_psq_enq) refers to rtx_conf_cm.o(.bss) for os_fifo
    rt_list.o(i.rt_put_dly) refers to rt_list.o(.bss) for .bss
    rt_list.o(i.rt_put_rdy_first) refers to rt_list.o(.bss) for .bss
    rt_list.o(i.rt_resort_prio) refers to rt_list.o(i.rt_rmv_list) for rt_rmv_list
    rt_list.o(i.rt_resort_prio) refers to rt_list.o(i.rt_put_prio) for rt_put_prio
    rt_list.o(i.rt_resort_prio) refers to rt_list.o(.bss) for .bss
    rt_list.o(i.rt_rmv_list) refers to rt_list.o(.bss) for .bss
    rt_mailbox.o(i.isr_mbx_receive) refers to rt_list.o(i.rt_psq_enq) for rt_psq_enq
    rt_mailbox.o(i.isr_mbx_receive) refers to rt_system.o(i.rt_psh_req) for rt_psh_req
    rt_mailbox.o(i.isr_mbx_send) refers to rt_list.o(i.rt_psq_enq) for rt_psq_enq
    rt_mailbox.o(i.isr_mbx_send) refers to rt_system.o(i.rt_psh_req) for rt_psh_req
    rt_mailbox.o(i.rt_mbx_psh) refers to rt_membox.o(i.rt_alloc_box) for rt_alloc_box
    rt_mailbox.o(i.rt_mbx_psh) refers to rt_list.o(i.rt_get_first) for rt_get_first
    rt_mailbox.o(i.rt_mbx_psh) refers to hal_cm.o(i.rt_ret_val) for rt_ret_val
    rt_mailbox.o(i.rt_mbx_psh) refers to rt_list.o(i.rt_rmv_dly) for rt_rmv_dly
    rt_mailbox.o(i.rt_mbx_psh) refers to rt_list.o(i.rt_put_prio) for rt_put_prio
    rt_mailbox.o(i.rt_mbx_psh) refers to hal_cm.o(i.rt_ret_val2) for rt_ret_val2
    rt_mailbox.o(i.rt_mbx_psh) refers to rtx_conf_cm.o(i.os_error) for os_error
    rt_mailbox.o(i.rt_mbx_psh) refers to rt_list.o(.bss) for os_rdy
    rt_mailbox.o(i.rt_mbx_send) refers to rt_list.o(i.rt_put_prio) for rt_put_prio
    rt_mailbox.o(i.rt_mbx_send) refers to rt_list.o(i.rt_get_first) for rt_get_first
    rt_mailbox.o(i.rt_mbx_send) refers to hal_cm.o(i.rt_ret_val2) for rt_ret_val2
    rt_mailbox.o(i.rt_mbx_send) refers to rt_list.o(i.rt_rmv_dly) for rt_rmv_dly
    rt_mailbox.o(i.rt_mbx_send) refers to rt_task.o(i.rt_dispatch) for rt_dispatch
    rt_mailbox.o(i.rt_mbx_send) refers to rt_task.o(i.rt_block) for rt_block
    rt_mailbox.o(i.rt_mbx_send) refers to rt_task.o(.data) for os_tsk
    rt_mailbox.o(i.rt_mbx_wait) refers to rt_list.o(i.rt_get_first) for rt_get_first
    rt_mailbox.o(i.rt_mbx_wait) refers to hal_cm.o(i.rt_ret_val) for rt_ret_val
    rt_mailbox.o(i.rt_mbx_wait) refers to rt_list.o(i.rt_rmv_dly) for rt_rmv_dly
    rt_mailbox.o(i.rt_mbx_wait) refers to rt_task.o(i.rt_dispatch) for rt_dispatch
    rt_mailbox.o(i.rt_mbx_wait) refers to rt_list.o(i.rt_put_prio) for rt_put_prio
    rt_mailbox.o(i.rt_mbx_wait) refers to rt_task.o(i.rt_block) for rt_block
    rt_mailbox.o(i.rt_mbx_wait) refers to rt_task.o(.data) for os_tsk
    rt_semaphore.o(i.isr_sem_send) refers to rt_list.o(i.rt_psq_enq) for rt_psq_enq
    rt_semaphore.o(i.isr_sem_send) refers to rt_system.o(i.rt_psh_req) for rt_psh_req
    rt_semaphore.o(i.rt_sem_delete) refers to rt_list.o(i.rt_get_first) for rt_get_first
    rt_semaphore.o(i.rt_sem_delete) refers to hal_cm.o(i.rt_ret_val) for rt_ret_val
    rt_semaphore.o(i.rt_sem_delete) refers to rt_list.o(i.rt_rmv_dly) for rt_rmv_dly
    rt_semaphore.o(i.rt_sem_delete) refers to rt_list.o(i.rt_put_prio) for rt_put_prio
    rt_semaphore.o(i.rt_sem_delete) refers to rt_task.o(i.rt_dispatch) for rt_dispatch
    rt_semaphore.o(i.rt_sem_delete) refers to rt_list.o(.bss) for os_rdy
    rt_semaphore.o(i.rt_sem_delete) refers to rt_task.o(.data) for os_tsk
    rt_semaphore.o(i.rt_sem_psh) refers to rt_list.o(i.rt_get_first) for rt_get_first
    rt_semaphore.o(i.rt_sem_psh) refers to rt_list.o(i.rt_rmv_dly) for rt_rmv_dly
    rt_semaphore.o(i.rt_sem_psh) refers to hal_cm.o(i.rt_ret_val) for rt_ret_val
    rt_semaphore.o(i.rt_sem_psh) refers to rt_list.o(i.rt_put_prio) for rt_put_prio
    rt_semaphore.o(i.rt_sem_psh) refers to rt_list.o(.bss) for os_rdy
    rt_semaphore.o(i.rt_sem_send) refers to rt_list.o(i.rt_get_first) for rt_get_first
    rt_semaphore.o(i.rt_sem_send) refers to hal_cm.o(i.rt_ret_val) for rt_ret_val
    rt_semaphore.o(i.rt_sem_send) refers to rt_list.o(i.rt_rmv_dly) for rt_rmv_dly
    rt_semaphore.o(i.rt_sem_send) refers to rt_task.o(i.rt_dispatch) for rt_dispatch
    rt_semaphore.o(i.rt_sem_wait) refers to rt_list.o(i.rt_put_prio) for rt_put_prio
    rt_semaphore.o(i.rt_sem_wait) refers to rt_task.o(i.rt_block) for rt_block
    rt_semaphore.o(i.rt_sem_wait) refers to rt_task.o(.data) for os_tsk
    rt_time.o(i.rt_dly_wait) refers to rt_task.o(i.rt_block) for rt_block
    rt_time.o(i.rt_itv_set) refers to rt_task.o(.data) for os_tsk
    rt_time.o(i.rt_itv_set) refers to rt_time.o(.data) for .data
    rt_time.o(i.rt_itv_wait) refers to rt_task.o(i.rt_block) for rt_block
    rt_time.o(i.rt_itv_wait) refers to rt_task.o(.data) for os_tsk
    rt_time.o(i.rt_itv_wait) refers to rt_time.o(.data) for .data
    rt_time.o(i.rt_time_get) refers to rt_time.o(.data) for .data
    rt_robin.o(i.rt_chk_robin) refers to rt_list.o(i.rt_get_first) for rt_get_first
    rt_robin.o(i.rt_chk_robin) refers to rt_list.o(i.rt_put_prio) for rt_put_prio
    rt_robin.o(i.rt_chk_robin) refers to rt_robin.o(.data) for .data
    rt_robin.o(i.rt_chk_robin) refers to rt_list.o(.bss) for os_rdy
    rt_robin.o(i.rt_chk_robin) refers to rt_time.o(.data) for os_time
    rt_robin.o(i.rt_init_robin) refers to rt_robin.o(.data) for .data
    rt_robin.o(i.rt_init_robin) refers to rtx_conf_cm.o(.constdata) for os_rrobin
    rt_membox.o(i._calloc_box) refers to hal_cm3.o(.emb_text) for _alloc_box
    hal_cm.o(i.dbg_init) refers to hal_cm.o(.data) for .data
    hal_cm.o(i.rt_init_stack) refers to rtx_conf_cm.o(.constdata) for os_stackinfo
    hal_cm3.o(.emb_text) refers to rtx_conf_cm.o(.constdata) for os_flags
    hal_cm3.o(.emb_text) refers to rt_membox.o(i.rt_alloc_box) for rt_alloc_box
    hal_cm3.o(.emb_text) refers to rt_membox.o(i.rt_free_box) for rt_free_box
    hal_cm3.o(.emb_text) refers to rt_system.o(i.rt_stk_check) for rt_stk_check
    hal_cm3.o(.emb_text) refers to rt_task.o(.data) for os_tsk
    hal_cm3.o(.emb_text) refers to svc_table.o(SVC_TABLE) for SVC_Count
    hal_cm3.o(.emb_text) refers to rt_system.o(i.rt_pop_req) for rt_pop_req
    hal_cm3.o(.emb_text) refers to rt_system.o(i.rt_systick) for rt_systick
    hal_cm3.o(.emb_text) refers to rt_system.o(i.os_tick_irqack) for os_tick_irqack
    usbd_lib_core_device.o(i.USBD_Core_Endpoint0_InDataSent) refers to usbd_config_0.o(i.USBD_Class_Endpoint0_InDataSent) for USBD_Class_Endpoint0_InDataSent
    usbd_lib_core_device.o(i.USBD_Core_Endpoint0_InDataSent) refers to usbd_config_0.o(.constdata) for usbd_dev_num
    usbd_lib_core_device.o(i.USBD_Core_Endpoint0_InDataSent) refers to usbd_config_0.o(.constdata) for usbd_dev_ptr
    usbd_lib_core_device.o(i.USBD_Core_Endpoint0_InDataSent) refers to usbd_config_0.o(.constdata) for fpUSBD_Device_Endpoint0_InDataSent
    usbd_lib_core_device.o(i.USBD_Core_Endpoint0_OutDataReceived) refers to usbd_config_0.o(i.USBD_Class_Endpoint0_OutDataReceived) for USBD_Class_Endpoint0_OutDataReceived
    usbd_lib_core_device.o(i.USBD_Core_Endpoint0_OutDataReceived) refers to usbd_config_0.o(.constdata) for usbd_dev_num
    usbd_lib_core_device.o(i.USBD_Core_Endpoint0_OutDataReceived) refers to usbd_config_0.o(.constdata) for usbd_dev_ptr
    usbd_lib_core_device.o(i.USBD_Core_Endpoint0_OutDataReceived) refers to usbd_config_0.o(.constdata) for fpUSBD_Device_Endpoint0_OutDataReceived
    usbd_lib_core_device.o(i.USBD_Core_Endpoint0_SetupPacketProcessed) refers to usbd_config_0.o(i.USBD_Class_Endpoint0_SetupPacketProcessed) for USBD_Class_Endpoint0_SetupPacketProcessed
    usbd_lib_core_device.o(i.USBD_Core_Endpoint0_SetupPacketProcessed) refers to usbd_config_0.o(.constdata) for usbd_dev_num
    usbd_lib_core_device.o(i.USBD_Core_Endpoint0_SetupPacketProcessed) refers to usbd_config_0.o(.constdata) for usbd_dev_ptr
    usbd_lib_core_device.o(i.USBD_Core_Endpoint0_SetupPacketProcessed) refers to usbd_config_0.o(.constdata) for fpUSBD_Device_Endpoint0_SetupPacketProcessed
    usbd_lib_core_device.o(i.USBD_Core_Endpoint0_SetupPacketReceived) refers to usbd_config_0.o(i.USBD_Class_Endpoint0_SetupPacketReceived) for USBD_Class_Endpoint0_SetupPacketReceived
    usbd_lib_core_device.o(i.USBD_Core_Endpoint0_SetupPacketReceived) refers to usbd_config_0.o(.constdata) for usbd_dev_num
    usbd_lib_core_device.o(i.USBD_Core_Endpoint0_SetupPacketReceived) refers to usbd_config_0.o(.constdata) for usbd_dev_ptr
    usbd_lib_core_device.o(i.USBD_Core_Endpoint0_SetupPacketReceived) refers to usbd_config_0.o(.constdata) for fpUSBD_Device_Endpoint0_SetupPacketReceived
    usbd_lib_core_cdc.o(i.USBD_Endpoint0_Out_CDC_ReqToIF) refers to usbd_lib_cdc.o(i.USBD_CDC_ACM_CoreSendEncapsulatedCommand) for USBD_CDC_ACM_CoreSendEncapsulatedCommand
    usbd_lib_core_cdc.o(i.USBD_Endpoint0_Out_CDC_ReqToIF) refers to usbd_lib_core.o(i.USBD_StatusInStage) for USBD_StatusInStage
    usbd_lib_core_cdc.o(i.USBD_Endpoint0_Out_CDC_ReqToIF) refers to usbd_lib_cdc.o(i.USBD_CDC_ACM_CoreSetCommFeature) for USBD_CDC_ACM_CoreSetCommFeature
    usbd_lib_core_cdc.o(i.USBD_Endpoint0_Out_CDC_ReqToIF) refers to usbd_lib_cdc.o(i.USBD_CDC_ACM_CoreSetLineCoding) for USBD_CDC_ACM_CoreSetLineCoding
    usbd_lib_core_cdc.o(i.USBD_Endpoint0_Out_CDC_ReqToIF) refers to usbd_lib_cdc.o(i.USBD_CDC_NCM_CoreSetEthernetMulticastFilters) for USBD_CDC_NCM_CoreSetEthernetMulticastFilters
    usbd_lib_core_cdc.o(i.USBD_Endpoint0_Out_CDC_ReqToIF) refers to usbd_lib_cdc.o(i.USBD_CDC_NCM_CoreSetEthernetPowerManagementPatternFilter) for USBD_CDC_NCM_CoreSetEthernetPowerManagementPatternFilter
    usbd_lib_core_cdc.o(i.USBD_Endpoint0_Out_CDC_ReqToIF) refers to usbd_lib_cdc.o(i.USBD_CDC_NCM_CoreSetNetAddress) for USBD_CDC_NCM_CoreSetNetAddress
    usbd_lib_core_cdc.o(i.USBD_Endpoint0_Out_CDC_ReqToIF) refers to usbd_lib_cdc.o(i.USBD_CDC_NCM_CoreSetNtbInputSize) for USBD_CDC_NCM_CoreSetNtbInputSize
    usbd_lib_core_cdc.o(i.USBD_Endpoint0_Out_CDC_ReqToIF) refers to usbd_lib_cdc.o(i.USBD_CDC_NCM_CoreSetMaxDatagramSize) for USBD_CDC_NCM_CoreSetMaxDatagramSize
    usbd_lib_core_cdc.o(i.USBD_Endpoint0_Out_CDC_ReqToIF) refers to usbd_config_0.o(.constdata) for usbd_dev_num
    usbd_lib_core_cdc.o(i.USBD_Endpoint0_Out_CDC_ReqToIF) refers to usbd_config_0.o(.constdata) for usbd_dev_ptr
    usbd_lib_core_cdc.o(i.USBD_Endpoint0_Out_CDC_ReqToIF) refers to usbd_config_0.o(.constdata) for usbd_cdc_num
    usbd_lib_core_cdc.o(i.USBD_Endpoint0_Out_CDC_ReqToIF) refers to usbd_config_0.o(.constdata) for usbd_cdc_ptr
    usbd_lib_core_cdc.o(i.USBD_Endpoint0_Setup_CDC_ReqToIF) refers to usbd_lib_cdc.o(i.USBD_CDC_ACM_CoreGetEncapsulatedResponse) for USBD_CDC_ACM_CoreGetEncapsulatedResponse
    usbd_lib_core_cdc.o(i.USBD_Endpoint0_Setup_CDC_ReqToIF) refers to usbd_lib_cdc.o(i.USBD_CDC_ACM_CoreGetCommFeature) for USBD_CDC_ACM_CoreGetCommFeature
    usbd_lib_core_cdc.o(i.USBD_Endpoint0_Setup_CDC_ReqToIF) refers to usbd_lib_core.o(i.USBD_DataInStage) for USBD_DataInStage
    usbd_lib_core_cdc.o(i.USBD_Endpoint0_Setup_CDC_ReqToIF) refers to usbd_lib_cdc.o(i.USBD_CDC_ACM_CoreClearCommFeature) for USBD_CDC_ACM_CoreClearCommFeature
    usbd_lib_core_cdc.o(i.USBD_Endpoint0_Setup_CDC_ReqToIF) refers to usbd_lib_cdc.o(i.USBD_CDC_ACM_CoreGetLineCoding) for USBD_CDC_ACM_CoreGetLineCoding
    usbd_lib_core_cdc.o(i.USBD_Endpoint0_Setup_CDC_ReqToIF) refers to usbd_lib_cdc.o(i.USBD_CDC_ACM_CoreSetControlLineState) for USBD_CDC_ACM_CoreSetControlLineState
    usbd_lib_core_cdc.o(i.USBD_Endpoint0_Setup_CDC_ReqToIF) refers to usbd_lib_core.o(i.USBD_StatusInStage) for USBD_StatusInStage
    usbd_lib_core_cdc.o(i.USBD_Endpoint0_Setup_CDC_ReqToIF) refers to usbd_lib_cdc.o(i.USBD_CDC_ACM_CoreSendBreak) for USBD_CDC_ACM_CoreSendBreak
    usbd_lib_core_cdc.o(i.USBD_Endpoint0_Setup_CDC_ReqToIF) refers to usbd_lib_cdc.o(i.USBD_CDC_NCM_CoreGetEthernetPowerManagementPatternFilter) for USBD_CDC_NCM_CoreGetEthernetPowerManagementPatternFilter
    usbd_lib_core_cdc.o(i.USBD_Endpoint0_Setup_CDC_ReqToIF) refers to usbd_lib_cdc.o(i.USBD_CDC_NCM_CoreSetEthernetPacketFilter) for USBD_CDC_NCM_CoreSetEthernetPacketFilter
    usbd_lib_core_cdc.o(i.USBD_Endpoint0_Setup_CDC_ReqToIF) refers to usbd_lib_cdc.o(i.USBD_CDC_NCM_CoreGetEthernetStatistic) for USBD_CDC_NCM_CoreGetEthernetStatistic
    usbd_lib_core_cdc.o(i.USBD_Endpoint0_Setup_CDC_ReqToIF) refers to usbd_lib_cdc.o(i.USBD_CDC_NCM_CoreGetNtbParameters) for USBD_CDC_NCM_CoreGetNtbParameters
    usbd_lib_core_cdc.o(i.USBD_Endpoint0_Setup_CDC_ReqToIF) refers to usbd_lib_cdc.o(i.USBD_CDC_NCM_CoreGetNetAddress) for USBD_CDC_NCM_CoreGetNetAddress
    usbd_lib_core_cdc.o(i.USBD_Endpoint0_Setup_CDC_ReqToIF) refers to usbd_lib_cdc.o(i.USBD_CDC_NCM_CoreGetNtbFormat) for USBD_CDC_NCM_CoreGetNtbFormat
    usbd_lib_core_cdc.o(i.USBD_Endpoint0_Setup_CDC_ReqToIF) refers to usbd_lib_cdc.o(i.USBD_CDC_NCM_CoreSetNtbFormat) for USBD_CDC_NCM_CoreSetNtbFormat
    usbd_lib_core_cdc.o(i.USBD_Endpoint0_Setup_CDC_ReqToIF) refers to usbd_lib_cdc.o(i.USBD_CDC_NCM_CoreGetNtbInputSize) for USBD_CDC_NCM_CoreGetNtbInputSize
    usbd_lib_core_cdc.o(i.USBD_Endpoint0_Setup_CDC_ReqToIF) refers to usbd_lib_cdc.o(i.USBD_CDC_NCM_CoreGetMaxDatagramSize) for USBD_CDC_NCM_CoreGetMaxDatagramSize
    usbd_lib_core_cdc.o(i.USBD_Endpoint0_Setup_CDC_ReqToIF) refers to usbd_lib_cdc.o(i.USBD_CDC_NCM_CoreGetCrcMode) for USBD_CDC_NCM_CoreGetCrcMode
    usbd_lib_core_cdc.o(i.USBD_Endpoint0_Setup_CDC_ReqToIF) refers to usbd_lib_core.o(i.USBD_StatusOutStage) for USBD_StatusOutStage
    usbd_lib_core_cdc.o(i.USBD_Endpoint0_Setup_CDC_ReqToIF) refers to usbd_lib_cdc.o(i.USBD_CDC_NCM_CoreSetCrcMode) for USBD_CDC_NCM_CoreSetCrcMode
    usbd_lib_core_cdc.o(i.USBD_Endpoint0_Setup_CDC_ReqToIF) refers to usbd_config_0.o(.constdata) for usbd_dev_num
    usbd_lib_core_cdc.o(i.USBD_Endpoint0_Setup_CDC_ReqToIF) refers to usbd_config_0.o(.constdata) for usbd_dev_ptr
    usbd_lib_core_cdc.o(i.USBD_Endpoint0_Setup_CDC_ReqToIF) refers to usbd_config_0.o(.constdata) for usbd_cdc_num
    usbd_lib_core_cdc.o(i.USBD_Endpoint0_Setup_CDC_ReqToIF) refers to usbd_config_0.o(.constdata) for usbd_cdc_ptr
    libspace.o(.text) refers to libspace.o(.bss) for __libspace_start
    exit.o(.text) refers to rtexit.o(.ARM.Collect$$rtexit$$00000000) for __rt_exit
    rt_memcpy_v6.o(.text) refers to rt_memcpy_w.o(.text) for __aeabi_memcpy4
    rt_memclr.o(.text) refers to rt_memclr_w.o(.text) for _memset_w
    __main.o(!!!main) refers to __rtentry.o(.ARM.Collect$$rtentry$$00000000) for __rt_entry
    __rtentry.o(.ARM.Collect$$rtentry$$00000000) refers (Special) to __rtentry2.o(.ARM.Collect$$rtentry$$0000000A) for __rt_entry_li
    __rtentry.o(.ARM.Collect$$rtentry$$00000000) refers (Special) to __rtentry2.o(.ARM.Collect$$rtentry$$0000000D) for __rt_entry_main
    __rtentry.o(.ARM.Collect$$rtentry$$00000000) refers (Special) to __rtentry2.o(.ARM.Collect$$rtentry$$0000000B) for __rt_entry_postli_1
    __rtentry.o(.ARM.Collect$$rtentry$$00000000) refers (Special) to __rtentry2.o(.ARM.Collect$$rtentry$$00000009) for __rt_entry_postsh_1
    __rtentry.o(.ARM.Collect$$rtentry$$00000000) refers (Special) to __rtentry2.o(.ARM.Collect$$rtentry$$00000002) for __rt_entry_presh_1
    __rtentry.o(.ARM.Collect$$rtentry$$00000000) refers (Special) to __rtentry4.o(.ARM.Collect$$rtentry$$00000004) for __rt_entry_sh
    rtexit.o(.ARM.Collect$$rtexit$$00000000) refers (Special) to rtexit2.o(.ARM.Collect$$rtexit$$00000004) for __rt_exit_exit
    rtexit.o(.ARM.Collect$$rtexit$$00000000) refers (Special) to rtexit2.o(.ARM.Collect$$rtexit$$00000003) for __rt_exit_ls
    rtexit.o(.ARM.Collect$$rtexit$$00000000) refers (Special) to rtexit2.o(.ARM.Collect$$rtexit$$00000002) for __rt_exit_prels_1
    rtexit.o(.ARM.exidx) refers (Special) to rtexit2.o(.ARM.Collect$$rtexit$$00000004) for __rt_exit_exit
    rtexit.o(.ARM.exidx) refers (Special) to rtexit2.o(.ARM.Collect$$rtexit$$00000003) for __rt_exit_ls
    rtexit.o(.ARM.exidx) refers (Special) to rtexit2.o(.ARM.Collect$$rtexit$$00000002) for __rt_exit_prels_1
    rtexit.o(.ARM.exidx) refers to rtexit.o(.ARM.Collect$$rtexit$$00000000) for .ARM.Collect$$rtexit$$00000000
    aeabi_ldiv0_sigfpe.o(.text) refers to rt_div0.o(.text) for __rt_div0
    __rtentry2.o(.ARM.Collect$$rtentry$$00000008) refers to boardinit2.o(.text) for _platform_post_stackheap_init
    __rtentry2.o(.ARM.Collect$$rtentry$$0000000A) refers to libinit.o(.ARM.Collect$$libinit$$00000000) for __rt_lib_init
    __rtentry2.o(.ARM.Collect$$rtentry$$0000000B) refers to rtx_conf_cm.o(.emb_text) for _platform_post_lib_init
    __rtentry2.o(.ARM.Collect$$rtentry$$0000000D) refers to virtualcom.o(i.main) for main
    __rtentry2.o(.ARM.Collect$$rtentry$$0000000D) refers to exit.o(.text) for exit
    __rtentry2.o(.ARM.exidx) refers to __rtentry2.o(.ARM.Collect$$rtentry$$00000001) for .ARM.Collect$$rtentry$$00000001
    __rtentry2.o(.ARM.exidx) refers to __rtentry2.o(.ARM.Collect$$rtentry$$00000008) for .ARM.Collect$$rtentry$$00000008
    __rtentry2.o(.ARM.exidx) refers to __rtentry2.o(.ARM.Collect$$rtentry$$0000000A) for .ARM.Collect$$rtentry$$0000000A
    __rtentry2.o(.ARM.exidx) refers to __rtentry2.o(.ARM.Collect$$rtentry$$0000000B) for .ARM.Collect$$rtentry$$0000000B
    __rtentry2.o(.ARM.exidx) refers to __rtentry2.o(.ARM.Collect$$rtentry$$0000000D) for .ARM.Collect$$rtentry$$0000000D
    __rtentry4.o(.ARM.Collect$$rtentry$$00000004) refers to sys_stackheap_outer.o(.text) for __user_setup_stackheap
    __rtentry4.o(.ARM.exidx) refers to __rtentry4.o(.ARM.Collect$$rtentry$$00000004) for .ARM.Collect$$rtentry$$00000004
    rtexit2.o(.ARM.Collect$$rtexit$$00000003) refers to libshutdown.o(.ARM.Collect$$libshutdown$$00000000) for __rt_lib_shutdown
    rtexit2.o(.ARM.Collect$$rtexit$$00000004) refers to sys_exit.o(.text) for _sys_exit
    rtexit2.o(.ARM.exidx) refers to rtexit2.o(.ARM.Collect$$rtexit$$00000001) for .ARM.Collect$$rtexit$$00000001
    rtexit2.o(.ARM.exidx) refers to rtexit2.o(.ARM.Collect$$rtexit$$00000003) for .ARM.Collect$$rtexit$$00000003
    rtexit2.o(.ARM.exidx) refers to rtexit2.o(.ARM.Collect$$rtexit$$00000004) for .ARM.Collect$$rtexit$$00000004
    rt_div0.o(.text) refers to defsig_fpe_outer.o(.text) for __rt_SIGFPE
    sys_exit.o(.text) refers (Special) to use_no_semi.o(.text) for __I$use$semihosting
    sys_exit.o(.text) refers (Special) to indicate_semi.o(.text) for __semihosting_library_function
    sys_stackheap_outer.o(.text) refers to libspace.o(.text) for __user_perproc_libspace
    sys_stackheap_outer.o(.text) refers to startup_lpc17xx.o(.text) for __user_initial_stackheap
    defsig_fpe_outer.o(.text) refers to defsig_fpe_inner.o(.text) for __rt_SIGFPE_inner
    defsig_fpe_outer.o(.text) refers to defsig_exit.o(.text) for __sig_exit
    defsig_fpe_formal.o(.text) refers to rt_raise.o(.text) for __rt_raise
    libinit.o(.ARM.Collect$$libinit$$00000000) refers (Special) to libinit2.o(.ARM.Collect$$libinit$$0000002E) for __rt_lib_init_alloca_1
    libinit.o(.ARM.Collect$$libinit$$00000000) refers (Special) to libinit2.o(.ARM.Collect$$libinit$$0000002C) for __rt_lib_init_argv_1
    libinit.o(.ARM.Collect$$libinit$$00000000) refers (Special) to libinit2.o(.ARM.Collect$$libinit$$0000001B) for __rt_lib_init_atexit_1
    libinit.o(.ARM.Collect$$libinit$$00000000) refers (Special) to libinit2.o(.ARM.Collect$$libinit$$00000021) for __rt_lib_init_clock_1
    libinit.o(.ARM.Collect$$libinit$$00000000) refers (Special) to libinit2.o(.ARM.Collect$$libinit$$00000032) for __rt_lib_init_cpp_1
    libinit.o(.ARM.Collect$$libinit$$00000000) refers (Special) to libinit2.o(.ARM.Collect$$libinit$$00000030) for __rt_lib_init_exceptions_1
    libinit.o(.ARM.Collect$$libinit$$00000000) refers (Special) to libinit2.o(.ARM.Collect$$libinit$$00000002) for __rt_lib_init_fp_1
    libinit.o(.ARM.Collect$$libinit$$00000000) refers (Special) to libinit2.o(.ARM.Collect$$libinit$$0000001F) for __rt_lib_init_fp_trap_1
    libinit.o(.ARM.Collect$$libinit$$00000000) refers (Special) to libinit2.o(.ARM.Collect$$libinit$$00000023) for __rt_lib_init_getenv_1
    libinit.o(.ARM.Collect$$libinit$$00000000) refers (Special) to libinit2.o(.ARM.Collect$$libinit$$0000000A) for __rt_lib_init_heap_1
    libinit.o(.ARM.Collect$$libinit$$00000000) refers (Special) to libinit2.o(.ARM.Collect$$libinit$$00000011) for __rt_lib_init_lc_collate_1
    libinit.o(.ARM.Collect$$libinit$$00000000) refers (Special) to libinit2.o(.ARM.Collect$$libinit$$00000013) for __rt_lib_init_lc_ctype_1
    libinit.o(.ARM.Collect$$libinit$$00000000) refers (Special) to libinit2.o(.ARM.Collect$$libinit$$00000015) for __rt_lib_init_lc_monetary_1
    libinit.o(.ARM.Collect$$libinit$$00000000) refers (Special) to libinit2.o(.ARM.Collect$$libinit$$00000017) for __rt_lib_init_lc_numeric_1
    libinit.o(.ARM.Collect$$libinit$$00000000) refers (Special) to libinit2.o(.ARM.Collect$$libinit$$00000019) for __rt_lib_init_lc_time_1
    libinit.o(.ARM.Collect$$libinit$$00000000) refers (Special) to libinit2.o(.ARM.Collect$$libinit$$00000004) for __rt_lib_init_preinit_1
    libinit.o(.ARM.Collect$$libinit$$00000000) refers (Special) to libinit2.o(.ARM.Collect$$libinit$$0000000E) for __rt_lib_init_rand_1
    libinit.o(.ARM.Collect$$libinit$$00000000) refers (Special) to libinit2.o(.ARM.Collect$$libinit$$00000033) for __rt_lib_init_return
    libinit.o(.ARM.Collect$$libinit$$00000000) refers (Special) to libinit2.o(.ARM.Collect$$libinit$$0000001D) for __rt_lib_init_signal_1
    libinit.o(.ARM.Collect$$libinit$$00000000) refers (Special) to libinit2.o(.ARM.Collect$$libinit$$00000025) for __rt_lib_init_stdio_1
    libinit.o(.ARM.Collect$$libinit$$00000000) refers (Special) to libinit2.o(.ARM.Collect$$libinit$$0000000C) for __rt_lib_init_user_alloc_1
    libshutdown.o(.ARM.Collect$$libshutdown$$00000000) refers (Special) to libshutdown2.o(.ARM.Collect$$libshutdown$$00000002) for __rt_lib_shutdown_cpp_1
    libshutdown.o(.ARM.Collect$$libshutdown$$00000000) refers (Special) to libshutdown2.o(.ARM.Collect$$libshutdown$$00000007) for __rt_lib_shutdown_fp_trap_1
    libshutdown.o(.ARM.Collect$$libshutdown$$00000000) refers (Special) to libshutdown2.o(.ARM.Collect$$libshutdown$$0000000F) for __rt_lib_shutdown_heap_1
    libshutdown.o(.ARM.Collect$$libshutdown$$00000000) refers (Special) to libshutdown2.o(.ARM.Collect$$libshutdown$$00000010) for __rt_lib_shutdown_return
    libshutdown.o(.ARM.Collect$$libshutdown$$00000000) refers (Special) to libshutdown2.o(.ARM.Collect$$libshutdown$$0000000A) for __rt_lib_shutdown_signal_1
    libshutdown.o(.ARM.Collect$$libshutdown$$00000000) refers (Special) to libshutdown2.o(.ARM.Collect$$libshutdown$$00000004) for __rt_lib_shutdown_stdio_1
    libshutdown.o(.ARM.Collect$$libshutdown$$00000000) refers (Special) to libshutdown2.o(.ARM.Collect$$libshutdown$$0000000C) for __rt_lib_shutdown_user_alloc_1
    rt_raise.o(.text) refers to __raise.o(.text) for __raise
    rt_raise.o(.text) refers to sys_exit.o(.text) for _sys_exit
    defsig_exit.o(.text) refers to sys_exit.o(.text) for _sys_exit
    defsig_fpe_inner.o(.text) refers to defsig_general.o(.text) for __default_signal_display
    libinit2.o(.ARM.Collect$$libinit$$00000010) refers to libinit2.o(.ARM.Collect$$libinit$$0000000F) for .ARM.Collect$$libinit$$0000000F
    libinit2.o(.ARM.Collect$$libinit$$00000012) refers to libinit2.o(.ARM.Collect$$libinit$$0000000F) for .ARM.Collect$$libinit$$0000000F
    libinit2.o(.ARM.Collect$$libinit$$00000014) refers to libinit2.o(.ARM.Collect$$libinit$$0000000F) for .ARM.Collect$$libinit$$0000000F
    libinit2.o(.ARM.Collect$$libinit$$00000016) refers to libinit2.o(.ARM.Collect$$libinit$$0000000F) for .ARM.Collect$$libinit$$0000000F
    libinit2.o(.ARM.Collect$$libinit$$00000018) refers to libinit2.o(.ARM.Collect$$libinit$$0000000F) for .ARM.Collect$$libinit$$0000000F
    libinit2.o(.ARM.Collect$$libinit$$00000026) refers to argv_veneer.o(.emb_text) for __ARM_argv_veneer
    libinit2.o(.ARM.Collect$$libinit$$00000027) refers to argv_veneer.o(.emb_text) for __ARM_argv_veneer
    __raise.o(.text) refers to defsig.o(CL$$defsig) for __default_signal_handler
    defsig_general.o(.text) refers to sys_wrch.o(.text) for _ttywrch
    argv_veneer.o(.emb_text) refers to no_argv.o(.text) for __ARM_get_argv
    sys_wrch.o(.text) refers (Special) to use_no_semi.o(.text) for __I$use$semihosting
    sys_wrch.o(.text) refers (Special) to indicate_semi.o(.text) for __semihosting_library_function
    defsig.o(CL$$defsig) refers to defsig_fpe_inner.o(.text) for __rt_SIGFPE_inner
    defsig.o(CL$$defsig) refers to defsig_rtmem_inner.o(.text) for __rt_SIGRTMEM_inner
    _get_argv_nomalloc.o(.text) refers (Special) to hrguard.o(.text) for __heap_region$guard
    _get_argv_nomalloc.o(.text) refers to defsig_rtmem_outer.o(.text) for __rt_SIGRTMEM
    _get_argv_nomalloc.o(.text) refers to sys_command.o(.text) for _sys_command_string
    sys_command.o(.text) refers (Special) to use_no_semi.o(.text) for __I$use$semihosting
    sys_command.o(.text) refers (Special) to indicate_semi.o(.text) for __semihosting_library_function
    defsig_abrt_inner.o(.text) refers to defsig_general.o(.text) for __default_signal_display
    defsig_rtred_inner.o(.text) refers to defsig_general.o(.text) for __default_signal_display
    defsig_rtmem_inner.o(.text) refers to defsig_general.o(.text) for __default_signal_display
    defsig_rtmem_outer.o(.text) refers to defsig_rtmem_inner.o(.text) for __rt_SIGRTMEM_inner
    defsig_rtmem_outer.o(.text) refers to defsig_exit.o(.text) for __sig_exit
    defsig_rtmem_formal.o(.text) refers to rt_raise.o(.text) for __rt_raise
    defsig_stak_inner.o(.text) refers to defsig_general.o(.text) for __default_signal_display
    defsig_pvfn_inner.o(.text) refers to defsig_general.o(.text) for __default_signal_display
    defsig_cppl_inner.o(.text) refers to defsig_general.o(.text) for __default_signal_display
    defsig_segv_inner.o(.text) refers to defsig_general.o(.text) for __default_signal_display
    defsig_other.o(.text) refers to defsig_general.o(.text) for __default_signal_display
    usbd_lib_core_cdc.o(.ARM.RL_ARM1) refers to usbd_lib_core_cdc.o(.ARM.RL_ARM2) for .ARM.RL_ARM2
    usbd_lib_core_cdc.o(.ARM.RL_ARM2) refers to usbd_lib_core_cdc.o(.ARM.RL_ARM3) for .ARM.RL_ARM3
    usbd_lib_core_cdc.o(.ARM.RL_ARM3) refers to usbd_lib_core_cdc.o(.ARM.RL_ARM4) for .ARM.RL_ARM4
    usbd_lib_core_cdc.o(.ARM.RL_ARM4) refers to usbd_lib_core_cdc.o(.ARM.RL_ARM5) for .ARM.RL_ARM5
    usbd_lib_core_cdc.o(.ARM.RL_ARM5) refers to usbd_lib_core_cdc.o(.ARM.RL_ARM6) for .ARM.RL_ARM6
    usbd_lib_core_cdc.o(.ARM.RL_ARM6) refers to usbd_lib_core_cdc.o(.ARM.RL_ARM1) for .ARM.RL_ARM1


==============================================================================

Removing Unused input sections from the image.

    Removing virtualcom.o(.rev16_text), (4 bytes).
    Removing virtualcom.o(.revsh_text), (4 bytes).
    Removing virtualcom.o(.rrx_text), (6 bytes).
    Removing virtualcom.o(i.changePWM), (44 bytes).
    Removing virtualcom.o(.data), (4 bytes).
    Removing usbd_user_cdc_acm_uart_0.o(.rev16_text), (4 bytes).
    Removing usbd_user_cdc_acm_uart_0.o(.revsh_text), (4 bytes).
    Removing usbd_user_cdc_acm_uart_0.o(.rrx_text), (6 bytes).
    Removing usbd_user_cdc_acm_uart_0.o(i.USBD_CDC0_ACM_Uninitialize), (48 bytes).
    Removing glcd_fonts.o(.constdata), (896 bytes).
    Removing glcd_fonts.o(.constdata), (5376 bytes).
    Removing glcd_fonts.o(.constdata), (16 bytes).
    Removing glcd_fonts.o(.constdata), (16 bytes).
    Removing glcd_mcb1700.o(.rev16_text), (4 bytes).
    Removing glcd_mcb1700.o(.revsh_text), (4 bytes).
    Removing glcd_mcb1700.o(.rrx_text), (6 bytes).
    Removing glcd_mcb1700.o(i.GLCD_ClearScreen), (60 bytes).
    Removing glcd_mcb1700.o(i.GLCD_DrawBargraph), (92 bytes).
    Removing glcd_mcb1700.o(i.GLCD_DrawBitmap), (82 bytes).
    Removing glcd_mcb1700.o(i.GLCD_DrawChar), (136 bytes).
    Removing glcd_mcb1700.o(i.GLCD_DrawHLine), (48 bytes).
    Removing glcd_mcb1700.o(i.GLCD_DrawPixel), (184 bytes).
    Removing glcd_mcb1700.o(i.GLCD_DrawRectangle), (52 bytes).
    Removing glcd_mcb1700.o(i.GLCD_DrawString), (48 bytes).
    Removing glcd_mcb1700.o(i.GLCD_DrawVLine), (48 bytes).
    Removing glcd_mcb1700.o(i.GLCD_FrameBufferAccess), (42 bytes).
    Removing glcd_mcb1700.o(i.GLCD_FrameBufferAddress), (4 bytes).
    Removing glcd_mcb1700.o(i.GLCD_Initialize), (1454 bytes).
    Removing glcd_mcb1700.o(i.GLCD_SetBackgroundColor), (12 bytes).
    Removing glcd_mcb1700.o(i.GLCD_SetFont), (12 bytes).
    Removing glcd_mcb1700.o(i.GLCD_SetForegroundColor), (12 bytes).
    Removing glcd_mcb1700.o(i.GLCD_SetWindow), (148 bytes).
    Removing glcd_mcb1700.o(i.GLCD_Uninitialize), (32 bytes).
    Removing glcd_mcb1700.o(i.GLCD_VScroll), (6 bytes).
    Removing glcd_mcb1700.o(i.delay_ms), (44 bytes).
    Removing glcd_mcb1700.o(i.rd_id_man), (176 bytes).
    Removing glcd_mcb1700.o(i.spi_tran), (36 bytes).
    Removing glcd_mcb1700.o(i.spi_tran_man), (124 bytes).
    Removing glcd_mcb1700.o(i.wr_cmd), (60 bytes).
    Removing glcd_mcb1700.o(i.wr_dat_only), (36 bytes).
    Removing glcd_mcb1700.o(i.wr_dat_start), (28 bytes).
    Removing glcd_mcb1700.o(i.wr_dat_stop), (16 bytes).
    Removing glcd_mcb1700.o(i.wr_reg), (108 bytes).
    Removing glcd_mcb1700.o(.data), (20 bytes).
    Removing led_mcb1700.o(i.LED_GetCount), (4 bytes).
    Removing led_mcb1700.o(i.LED_Initialize), (76 bytes).
    Removing led_mcb1700.o(i.LED_Off), (40 bytes).
    Removing led_mcb1700.o(i.LED_On), (40 bytes).
    Removing led_mcb1700.o(i.LED_SetOut), (38 bytes).
    Removing led_mcb1700.o(i.LED_Uninitialize), (44 bytes).
    Removing led_mcb1700.o(.constdata), (16 bytes).
    Removing rtx_conf_cm.o(i.__user_perthread_libspace), (44 bytes).
    Removing rtx_conf_cm.o(i._mutex_initialize), (44 bytes).
    Removing rtx_conf_cm.o(.bss), (992 bytes).
    Removing rtx_conf_cm.o(.constdata), (4 bytes).
    Removing rtx_conf_cm.o(.constdata), (2 bytes).
    Removing rtx_conf_cm.o(.constdata), (2 bytes).
    Removing rtx_conf_cm.o(.data), (4 bytes).
    Removing rtx_conf_cm.o(.data), (4 bytes).
    Removing otg_lpc17xx.o(.rev16_text), (4 bytes).
    Removing otg_lpc17xx.o(.revsh_text), (4 bytes).
    Removing otg_lpc17xx.o(.rrx_text), (6 bytes).
    Removing ssp_lpc17xx.o(.rev16_text), (4 bytes).
    Removing ssp_lpc17xx.o(.revsh_text), (4 bytes).
    Removing ssp_lpc17xx.o(.rrx_text), (6 bytes).
    Removing ssp_lpc17xx.o(i.GetSSPClockFreq), (60 bytes).
    Removing ssp_lpc17xx.o(i.SSP1_Control), (12 bytes).
    Removing ssp_lpc17xx.o(i.SSP1_GetDataCount), (40 bytes).
    Removing ssp_lpc17xx.o(i.SSP1_GetStatus), (76 bytes).
    Removing ssp_lpc17xx.o(i.SSP1_Initialize), (12 bytes).
    Removing ssp_lpc17xx.o(i.SSP1_PowerControl), (12 bytes).
    Removing ssp_lpc17xx.o(i.SSP1_Receive), (12 bytes).
    Removing ssp_lpc17xx.o(i.SSP1_Send), (12 bytes).
    Removing ssp_lpc17xx.o(i.SSP1_Transfer), (12 bytes).
    Removing ssp_lpc17xx.o(i.SSP1_Uninitialize), (12 bytes).
    Removing ssp_lpc17xx.o(i.SSP_GetCapabilities), (12 bytes).
    Removing ssp_lpc17xx.o(i.SSP_GetVersion), (12 bytes).
    Removing ssp_lpc17xx.o(i.SSPx_Control), (996 bytes).
    Removing ssp_lpc17xx.o(i.SSPx_Initialize), (148 bytes).
    Removing ssp_lpc17xx.o(i.SSPx_PowerControl), (346 bytes).
    Removing ssp_lpc17xx.o(i.SSPx_Receive), (300 bytes).
    Removing ssp_lpc17xx.o(i.SSPx_Send), (300 bytes).
    Removing ssp_lpc17xx.o(i.SSPx_Transfer), (308 bytes).
    Removing ssp_lpc17xx.o(i.SSPx_Uninitialize), (100 bytes).
    Removing ssp_lpc17xx.o(i.__NVIC_ClearPendingIRQ), (26 bytes).
    Removing ssp_lpc17xx.o(.constdata), (44 bytes).
    Removing ssp_lpc17xx.o(.data), (8 bytes).
    Removing uart_lpc17xx.o(.rev16_text), (4 bytes).
    Removing uart_lpc17xx.o(.revsh_text), (4 bytes).
    Removing uart_lpc17xx.o(.rrx_text), (6 bytes).
    Removing usbd_lpc17xx.o(.rev16_text), (4 bytes).
    Removing usbd_lpc17xx.o(.revsh_text), (4 bytes).
    Removing usbd_lpc17xx.o(.rrx_text), (6 bytes).
    Removing gpdma_lpc17xx.o(.rev16_text), (4 bytes).
    Removing gpdma_lpc17xx.o(.revsh_text), (4 bytes).
    Removing gpdma_lpc17xx.o(.rrx_text), (6 bytes).
    Removing gpdma_lpc17xx.o(i.GPDMA_ChannelEnable), (52 bytes).
    Removing gpdma_lpc17xx.o(i.GPDMA_ChannelGetStatus), (28 bytes).
    Removing gpio_lpc17xx.o(.rev16_text), (4 bytes).
    Removing gpio_lpc17xx.o(.revsh_text), (4 bytes).
    Removing gpio_lpc17xx.o(.rrx_text), (6 bytes).
    Removing gpio_lpc17xx.o(i.GPIO_PinRead), (24 bytes).
    Removing gpio_lpc17xx.o(i.GPIO_PinWrite), (24 bytes).
    Removing gpio_lpc17xx.o(i.GPIO_PortClock), (28 bytes).
    Removing gpio_lpc17xx.o(i.GPIO_PortRead), (16 bytes).
    Removing gpio_lpc17xx.o(i.GPIO_PortWrite), (20 bytes).
    Removing gpio_lpc17xx.o(i.GPIO_SetDir), (32 bytes).
    Removing pin_lpc17xx.o(.rev16_text), (4 bytes).
    Removing pin_lpc17xx.o(.revsh_text), (4 bytes).
    Removing pin_lpc17xx.o(.rrx_text), (6 bytes).
    Removing pin_lpc17xx.o(i.PIN_ConfigureI2C0Pins), (28 bytes).
    Removing pin_lpc17xx.o(i.PIN_ConfigureTPIU), (28 bytes).
    Removing system_lpc17xx.o(.rev16_text), (4 bytes).
    Removing system_lpc17xx.o(.revsh_text), (4 bytes).
    Removing system_lpc17xx.o(.rrx_text), (6 bytes).
    Removing system_lpc17xx.o(i.SystemCoreClockUpdate), (208 bytes).
    Removing usbd_config_0.o(.rev16_text), (4 bytes).
    Removing usbd_config_0.o(.revsh_text), (4 bytes).
    Removing usbd_config_0.o(.rrx_text), (6 bytes).
    Removing usbd_config_0.o(i.USBD_CDC0_ACM_DataReceived), (2 bytes).
    Removing usbd_config_0.o(i.USBD_CDC0_ACM_GetLineCoding), (4 bytes).
    Removing usbd_config_0.o(i.USBD_CDC0_ACM_Initialize), (2 bytes).
    Removing usbd_config_0.o(i.USBD_CDC0_ACM_Reset), (2 bytes).
    Removing usbd_config_0.o(i.USBD_CDC0_ACM_SetControlLineState), (4 bytes).
    Removing usbd_config_0.o(i.USBD_CDC0_ACM_SetLineCoding), (4 bytes).
    Removing usbd_config_0.o(i.USBD_CDC0_ACM_Uninitialize), (2 bytes).
    Removing usbd_config_0.o(i.USBD_CDC0_NCM_Uninitialize), (2 bytes).
    Removing usbd_config_0.o(i.USBD_ClassUninitialize), (56 bytes).
    Removing usbd_config_0.o(i.USBD_Device0_Uninitialize), (2 bytes).
    Removing usbd_config_0.o(i.USBD_SemaphoreDelete), (18 bytes).
    Removing usbd_config_0.o(i.USBD_ThreadTerminate), (18 bytes).
    Removing usbd_config_0.o(i.USBD_TimerCreate), (4 bytes).
    Removing usbd_config_0.o(i.USBD_TimerDelete), (18 bytes).
    Removing usbd_config_0.o(i.USBD_TimerStart), (18 bytes).
    Removing usbd_config_0.o(i.USBD_TimerStop), (18 bytes).
    Removing usbd_config_0.o(.constdata), (4 bytes).
    Removing usbd_config_0.o(.constdata), (4 bytes).
    Removing usbd_config_0.o(.constdata), (4 bytes).
    Removing rt_cmsis.o(.rev16_text), (4 bytes).
    Removing rt_cmsis.o(.revsh_text), (4 bytes).
    Removing rt_cmsis.o(.rrx_text), (6 bytes).
    Removing rt_cmsis.o(i.osKernelRunning), (36 bytes).
    Removing rt_cmsis.o(i.osKernelSysTick), (24 bytes).
    Removing rt_cmsis.o(i.osMailAlloc), (28 bytes).
    Removing rt_cmsis.o(i.osMailCAlloc), (48 bytes).
    Removing rt_cmsis.o(i.osMailCreate), (44 bytes).
    Removing rt_cmsis.o(i.osMailFree), (28 bytes).
    Removing rt_cmsis.o(i.osMailGet), (22 bytes).
    Removing rt_cmsis.o(i.osMailPut), (20 bytes).
    Removing rt_cmsis.o(i.osMessageCreate), (44 bytes).
    Removing rt_cmsis.o(i.osMessagePut), (24 bytes).
    Removing rt_cmsis.o(i.osMutexCreate), (44 bytes).
    Removing rt_cmsis.o(i.osMutexDelete), (24 bytes).
    Removing rt_cmsis.o(i.osMutexRelease), (24 bytes).
    Removing rt_cmsis.o(i.osMutexWait), (24 bytes).
    Removing rt_cmsis.o(i.osPoolAlloc), (32 bytes).
    Removing rt_cmsis.o(i.osPoolCAlloc), (52 bytes).
    Removing rt_cmsis.o(i.osPoolCreate), (44 bytes).
    Removing rt_cmsis.o(i.osPoolFree), (32 bytes).
    Removing rt_cmsis.o(i.osSemaphoreDelete), (24 bytes).
    Removing rt_cmsis.o(i.osSignalClear), (24 bytes).
    Removing rt_cmsis.o(i.osThreadGetId), (24 bytes).
    Removing rt_cmsis.o(i.osThreadGetPriority), (24 bytes).
    Removing rt_cmsis.o(i.osThreadSetPriority), (24 bytes).
    Removing rt_cmsis.o(i.osThreadTerminate), (24 bytes).
    Removing rt_cmsis.o(i.osThreadYield), (24 bytes).
    Removing rt_cmsis.o(i.osTimerCreate), (44 bytes).
    Removing rt_cmsis.o(i.osTimerDelete), (24 bytes).
    Removing rt_cmsis.o(i.osTimerStart), (24 bytes).
    Removing rt_cmsis.o(i.osTimerStop), (24 bytes).
    Removing rt_cmsis.o(i.osWait), (4 bytes).
    Removing rt_cmsis.o(i.os_resume), (12 bytes).
    Removing rt_cmsis.o(i.os_suspend), (12 bytes).
    Removing rt_cmsis.o(i.rt_clr_box), (24 bytes).
    Removing rt_cmsis.o(i.rt_timer_remove), (60 bytes).
    Removing rt_cmsis.o(i.svcKernelRunning), (12 bytes).
    Removing rt_cmsis.o(i.svcKernelSysTick), (56 bytes).
    Removing rt_cmsis.o(i.svcMailCreate), (66 bytes).
    Removing rt_cmsis.o(i.svcMessagePut), (54 bytes).
    Removing rt_cmsis.o(i.svcMutexCreate), (28 bytes).
    Removing rt_cmsis.o(i.svcMutexDelete), (26 bytes).
    Removing rt_cmsis.o(i.svcMutexRelease), (34 bytes).
    Removing rt_cmsis.o(i.svcMutexWait), (58 bytes).
    Removing rt_cmsis.o(i.svcPoolCreate), (40 bytes).
    Removing rt_cmsis.o(i.svcSemaphoreDelete), (26 bytes).
    Removing rt_cmsis.o(i.svcSignalClear), (36 bytes).
    Removing rt_cmsis.o(i.svcThreadGetPriority), (18 bytes).
    Removing rt_cmsis.o(i.svcThreadSetPriority), (46 bytes).
    Removing rt_cmsis.o(i.svcThreadYield), (10 bytes).
    Removing rt_cmsis.o(i.svcTimerCreate), (56 bytes).
    Removing rt_cmsis.o(i.svcTimerDelete), (40 bytes).
    Removing rt_cmsis.o(i.svcTimerStart), (100 bytes).
    Removing rt_cmsis.o(i.svcTimerStop), (36 bytes).
    Removing rt_cmsis.o(i.sysMailAlloc), (88 bytes).
    Removing rt_cmsis.o(i.sysMailFree), (96 bytes).
    Removing rt_cmsis.o(i.sysPoolAlloc), (10 bytes).
    Removing rt_cmsis.o(i.sysPoolFree), (20 bytes).
    Removing rt_cmsis.o(i.sysUserTimerUpdate), (48 bytes).
    Removing rt_cmsis.o(i.sysUserTimerWakeupTime), (20 bytes).
    Removing rt_task.o(i.rt_tsk_pass), (48 bytes).
    Removing rt_mutex.o(i.rt_mut_delete), (176 bytes).
    Removing rt_mutex.o(i.rt_mut_init), (16 bytes).
    Removing usbd_lib_core.o(.rev16_text), (4 bytes).
    Removing usbd_lib_core.o(.revsh_text), (4 bytes).
    Removing usbd_lib_core.o(.rrx_text), (6 bytes).
    Removing usbd_lib_core.o(i.USBD1_Core_Thread), (6 bytes).
    Removing usbd_lib_core.o(i.USBD2_Core_Thread), (6 bytes).
    Removing usbd_lib_core.o(i.USBD3_Core_Thread), (6 bytes).
    Removing usbd_lib_core.o(i.USBD_Configured), (36 bytes).
    Removing usbd_lib_core.o(i.USBD_Disconnect), (24 bytes).
    Removing usbd_lib_core.o(i.USBD_EndpointAbort), (28 bytes).
    Removing usbd_lib_core.o(i.USBD_EndpointRead), (40 bytes).
    Removing usbd_lib_core.o(i.USBD_EndpointReadGetResult), (28 bytes).
    Removing usbd_lib_core.o(i.USBD_EndpointStall), (76 bytes).
    Removing usbd_lib_core.o(i.USBD_EndpointWrite), (42 bytes).
    Removing usbd_lib_core.o(i.USBD_EndpointWriteGetResult), (30 bytes).
    Removing usbd_lib_core.o(i.USBD_GetState), (24 bytes).
    Removing usbd_lib_core.o(i.USBD_GetVersion), (12 bytes).
    Removing usbd_lib_core.o(i.USBD_SetSerialNumber), (100 bytes).
    Removing usbd_lib_core.o(i.USBD_Uninitialize), (372 bytes).
    Removing usbd_lib_drv.o(.rev16_text), (4 bytes).
    Removing usbd_lib_drv.o(.revsh_text), (4 bytes).
    Removing usbd_lib_drv.o(.rrx_text), (6 bytes).
    Removing usbd_lib_drv.o(i.USBD_DriverDeviceDisconnect), (104 bytes).
    Removing usbd_lib_drv.o(i.USBD_DriverDeviceGetState), (108 bytes).
    Removing usbd_lib_drv.o(i.USBD_DriverDeviceRemoteWakeup), (104 bytes).
    Removing usbd_lib_drv.o(i.USBD_DriverGetFrameNumber), (76 bytes).
    Removing usbd_lib_drv.o(i.USBD_DriverUninitialize), (104 bytes).
    Removing usbd_lib_cdc.o(.rev16_text), (4 bytes).
    Removing usbd_lib_cdc.o(.revsh_text), (4 bytes).
    Removing usbd_lib_cdc.o(.rrx_text), (6 bytes).
    Removing usbd_lib_cdc.o(i.USBD_CDC1_Bulk_Thread), (6 bytes).
    Removing usbd_lib_cdc.o(i.USBD_CDC1_Int_Thread), (6 bytes).
    Removing usbd_lib_cdc.o(i.USBD_CDC2_Bulk_Thread), (6 bytes).
    Removing usbd_lib_cdc.o(i.USBD_CDC2_Int_Thread), (6 bytes).
    Removing usbd_lib_cdc.o(i.USBD_CDC3_Bulk_Thread), (6 bytes).
    Removing usbd_lib_cdc.o(i.USBD_CDC3_Int_Thread), (6 bytes).
    Removing usbd_lib_cdc.o(i.USBD_CDC_ACM_DataAvailable), (36 bytes).
    Removing usbd_lib_cdc.o(i.USBD_CDC_ACM_GetChar), (32 bytes).
    Removing usbd_lib_cdc.o(i.USBD_CDC_ACM_Notify), (128 bytes).
    Removing usbd_lib_cdc.o(i.USBD_CDC_ACM_PutChar), (32 bytes).
    Removing usbd_lib_cdc.o(i.USBD_CDC_NCM_NTB_IN_CreateNDP), (252 bytes).
    Removing usbd_lib_cdc.o(i.USBD_CDC_NCM_NTB_IN_Initialize), (124 bytes).
    Removing usbd_lib_cdc.o(i.USBD_CDC_NCM_NTB_IN_IsSent), (40 bytes).
    Removing usbd_lib_cdc.o(i.USBD_CDC_NCM_NTB_IN_RawSend), (116 bytes).
    Removing usbd_lib_cdc.o(i.USBD_CDC_NCM_NTB_IN_Send), (112 bytes).
    Removing usbd_lib_cdc.o(i.USBD_CDC_NCM_NTB_IN_WriteDatagram), (180 bytes).
    Removing usbd_lib_cdc.o(i.USBD_CDC_NCM_NTB_OUT_GetDatagramSize), (56 bytes).
    Removing usbd_lib_cdc.o(i.USBD_CDC_NCM_NTB_OUT_IsReceived), (52 bytes).
    Removing usbd_lib_cdc.o(i.USBD_CDC_NCM_NTB_OUT_ProcessNDP), (88 bytes).
    Removing usbd_lib_cdc.o(i.USBD_CDC_NCM_NTB_OUT_RawGetSize), (48 bytes).
    Removing usbd_lib_cdc.o(i.USBD_CDC_NCM_NTB_OUT_RawReceive), (96 bytes).
    Removing usbd_lib_cdc.o(i.USBD_CDC_NCM_NTB_OUT_ReadDatagram), (108 bytes).
    Removing usbd_lib_cdc.o(i.USBD_CDC_NCM_NTB_OUT_Release), (128 bytes).
    Removing usbd_lib_cdc.o(i.USBD_CDC_NCM_Notify_ConnectionSpeedChange), (156 bytes).
    Removing usbd_lib_cdc.o(i.USBD_CDC_NCM_Notify_NetworkConnection), (116 bytes).
    Removing usbd_lib_cdc.o(i.USBD_CDC_Uninitialize), (112 bytes).
    Removing usbd_lib_cdc.o(.constdata), (28 bytes).
    Removing rt_system.o(.emb_text), (0 bytes).
    Removing rt_system.o(i.os_tick_ovf), (16 bytes).
    Removing rt_system.o(i.os_tick_val), (20 bytes).
    Removing rt_system.o(i.rt_resume), (136 bytes).
    Removing rt_system.o(i.rt_suspend), (36 bytes).
    Removing rt_system.o(i.rt_tsk_lock), (80 bytes).
    Removing rt_system.o(i.rt_tsk_unlock), (80 bytes).
    Removing rt_event.o(i.rt_evt_clr), (28 bytes).
    Removing rt_event.o(i.rt_evt_get), (12 bytes).
    Removing rt_list.o(i.rt_get_same_rdy_prio), (36 bytes).
    Removing rt_mailbox.o(i.rt_mbx_send), (152 bytes).
    Removing rt_semaphore.o(i.rt_sem_delete), (92 bytes).
    Removing rt_time.o(i.rt_itv_set), (24 bytes).
    Removing rt_time.o(i.rt_itv_wait), (40 bytes).
    Removing rt_time.o(i.rt_time_get), (12 bytes).
    Removing rt_membox.o(i._calloc_box), (30 bytes).
    Removing usb_lib_ver.o(.rev16_text), (4 bytes).
    Removing usb_lib_ver.o(.revsh_text), (4 bytes).
    Removing usb_lib_ver.o(.rrx_text), (6 bytes).
    Removing usbd_lib_core_device.o(.rev16_text), (4 bytes).
    Removing usbd_lib_core_device.o(.revsh_text), (4 bytes).
    Removing usbd_lib_core_device.o(.rrx_text), (6 bytes).
    Removing usbd_lib_core_cdc.o(.rev16_text), (4 bytes).
    Removing usbd_lib_core_cdc.o(.revsh_text), (4 bytes).
    Removing usbd_lib_core_cdc.o(.rrx_text), (6 bytes).
    Removing usbd_lib_core_cdc.o(.ARM.RL_ARM1), (82 bytes).
    Removing usbd_lib_core_cdc.o(.ARM.RL_ARM2), (76 bytes).
    Removing usbd_lib_core_cdc.o(.ARM.RL_ARM3), (45 bytes).
    Removing usbd_lib_core_cdc.o(.ARM.RL_ARM4), (65 bytes).
    Removing usbd_lib_core_cdc.o(.ARM.RL_ARM5), (82 bytes).
    Removing usbd_lib_core_cdc.o(.ARM.RL_ARM6), (77 bytes).

289 unused section(s) (total 21551 bytes) removed from the image.

==============================================================================

Image Symbol Table

    Local Symbols

    Symbol Name                              Value     Ov Type        Size  Object(Section)

    RESET                                    0x00000000   Section      204  startup_lpc17xx.o(RESET)
    ../clib/angel/boardlib.s                 0x00000000   Number         0  boardinit1.o ABSOLUTE
    ../clib/angel/boardlib.s                 0x00000000   Number         0  boardinit2.o ABSOLUTE
    ../clib/angel/boardlib.s                 0x00000000   Number         0  boardshut.o ABSOLUTE
    ../clib/angel/dczerorl.s                 0x00000000   Number         0  __dczerorl.o ABSOLUTE
    ../clib/angel/handlers.s                 0x00000000   Number         0  __scatter_zi.o ABSOLUTE
    ../clib/angel/kernel.s                   0x00000000   Number         0  rtexit2.o ABSOLUTE
    ../clib/angel/kernel.s                   0x00000000   Number         0  __rtentry4.o ABSOLUTE
    ../clib/angel/kernel.s                   0x00000000   Number         0  __rtentry.o ABSOLUTE
    ../clib/angel/kernel.s                   0x00000000   Number         0  rtexit.o ABSOLUTE
    ../clib/angel/kernel.s                   0x00000000   Number         0  __rtentry2.o ABSOLUTE
    ../clib/angel/rt.s                       0x00000000   Number         0  rt_div0.o ABSOLUTE
    ../clib/angel/rt.s                       0x00000000   Number         0  rt_raise.o ABSOLUTE
    ../clib/angel/rt.s                       0x00000000   Number         0  aeabi_ldiv0.o ABSOLUTE
    ../clib/angel/rt.s                       0x00000000   Number         0  aeabi_ldiv0_sigfpe.o ABSOLUTE
    ../clib/angel/scatter.s                  0x00000000   Number         0  __scatter.o ABSOLUTE
    ../clib/angel/startup.s                  0x00000000   Number         0  __main.o ABSOLUTE
    ../clib/angel/sys.s                      0x00000000   Number         0  libspace.o ABSOLUTE
    ../clib/angel/sys.s                      0x00000000   Number         0  use_no_semi.o ABSOLUTE
    ../clib/angel/sys.s                      0x00000000   Number         0  indicate_semi.o ABSOLUTE
    ../clib/angel/sys.s                      0x00000000   Number         0  sys_stackheap_outer.o ABSOLUTE
    ../clib/angel/sysapp.c                   0x00000000   Number         0  sys_command.o ABSOLUTE
    ../clib/angel/sysapp.c                   0x00000000   Number         0  sys_wrch.o ABSOLUTE
    ../clib/angel/sysapp.c                   0x00000000   Number         0  sys_exit.o ABSOLUTE
    ../clib/armsys.c                         0x00000000   Number         0  no_argv.o ABSOLUTE
    ../clib/armsys.c                         0x00000000   Number         0  _get_argv_nomalloc.o ABSOLUTE
    ../clib/armsys.c                         0x00000000   Number         0  argv_veneer.o ABSOLUTE
    ../clib/armsys.c                         0x00000000   Number         0  argv_veneer.o ABSOLUTE
    ../clib/heapalloc.c                      0x00000000   Number         0  hrguard.o ABSOLUTE
    ../clib/heapaux.c                        0x00000000   Number         0  heapauxi.o ABSOLUTE
    ../clib/libinit.s                        0x00000000   Number         0  libinit.o ABSOLUTE
    ../clib/libinit.s                        0x00000000   Number         0  libshutdown2.o ABSOLUTE
    ../clib/libinit.s                        0x00000000   Number         0  libinit2.o ABSOLUTE
    ../clib/libinit.s                        0x00000000   Number         0  libshutdown.o ABSOLUTE
    ../clib/longlong.s                       0x00000000   Number         0  lludivv7m.o ABSOLUTE
    ../clib/memcpset.s                       0x00000000   Number         0  rt_memclr_w.o ABSOLUTE
    ../clib/memcpset.s                       0x00000000   Number         0  rt_memcpy_w.o ABSOLUTE
    ../clib/memcpset.s                       0x00000000   Number         0  rt_memclr.o ABSOLUTE
    ../clib/memcpset.s                       0x00000000   Number         0  rt_memcpy_v6.o ABSOLUTE
    ../clib/signal.c                         0x00000000   Number         0  __raise.o ABSOLUTE
    ../clib/signal.c                         0x00000000   Number         0  defsig_cppl_inner.o ABSOLUTE
    ../clib/signal.c                         0x00000000   Number         0  defsig_pvfn_inner.o ABSOLUTE
    ../clib/signal.c                         0x00000000   Number         0  defsig_stak_inner.o ABSOLUTE
    ../clib/signal.c                         0x00000000   Number         0  defsig_general.o ABSOLUTE
    ../clib/signal.c                         0x00000000   Number         0  defsig_rtmem_formal.o ABSOLUTE
    ../clib/signal.c                         0x00000000   Number         0  defsig_rtmem_outer.o ABSOLUTE
    ../clib/signal.c                         0x00000000   Number         0  defsig_rtmem_inner.o ABSOLUTE
    ../clib/signal.c                         0x00000000   Number         0  defsig_abrt_inner.o ABSOLUTE
    ../clib/signal.c                         0x00000000   Number         0  defsig_other.o ABSOLUTE
    ../clib/signal.c                         0x00000000   Number         0  defsig_segv_inner.o ABSOLUTE
    ../clib/signal.c                         0x00000000   Number         0  defsig_fpe_outer.o ABSOLUTE
    ../clib/signal.c                         0x00000000   Number         0  defsig_fpe_formal.o ABSOLUTE
    ../clib/signal.c                         0x00000000   Number         0  defsig_rtred_inner.o ABSOLUTE
    ../clib/signal.c                         0x00000000   Number         0  defsig_exit.o ABSOLUTE
    ../clib/signal.c                         0x00000000   Number         0  defsig_fpe_inner.o ABSOLUTE
    ../clib/signal.s                         0x00000000   Number         0  defsig.o ABSOLUTE
    ../clib/stdlib.c                         0x00000000   Number         0  exit.o ABSOLUTE
    ../clib/string.c                         0x00000000   Number         0  strlen.o ABSOLUTE
    ../fplib/fpinit.s                        0x00000000   Number         0  fpinit.o ABSOLUTE
    ..\HAL_CM.c                              0x00000000   Number         0  hal_cm.o ABSOLUTE
    ..\\rt_CMSIS.c                           0x00000000   Number         0  rt_cmsis.o ABSOLUTE
    ..\\rt_System.c                          0x00000000   Number         0  rt_system.o ABSOLUTE
    ..\rt_CMSIS.c                            0x00000000   Number         0  rt_cmsis.o ABSOLUTE
    ..\rt_Event.c                            0x00000000   Number         0  rt_event.o ABSOLUTE
    ..\rt_List.c                             0x00000000   Number         0  rt_list.o ABSOLUTE
    ..\rt_Mailbox.c                          0x00000000   Number         0  rt_mailbox.o ABSOLUTE
    ..\rt_MemBox.c                           0x00000000   Number         0  rt_membox.o ABSOLUTE
    ..\rt_Memory.c                           0x00000000   Number         0  rt_memory.o ABSOLUTE
    ..\rt_Mutex.c                            0x00000000   Number         0  rt_mutex.o ABSOLUTE
    ..\rt_Robin.c                            0x00000000   Number         0  rt_robin.o ABSOLUTE
    ..\rt_Semaphore.c                        0x00000000   Number         0  rt_semaphore.o ABSOLUTE
    ..\rt_System.c                           0x00000000   Number         0  rt_system.o ABSOLUTE
    ..\rt_Task.c                             0x00000000   Number         0  rt_task.o ABSOLUTE
    ..\rt_Time.c                             0x00000000   Number         0  rt_time.o ABSOLUTE
    C:\Keil_v5\ARM\PACK\Keil\LPC1700_DFP\2.5.0\Boards\Keil\MCB1700\Common\GLCD_Fonts.c 0x00000000   Number         0  glcd_fonts.o ABSOLUTE
    C:\Keil_v5\ARM\PACK\Keil\LPC1700_DFP\2.5.0\Boards\Keil\MCB1700\Common\GLCD_MCB1700.c 0x00000000   Number         0  glcd_mcb1700.o ABSOLUTE
    C:\Keil_v5\ARM\PACK\Keil\LPC1700_DFP\2.5.0\Boards\Keil\MCB1700\Common\LED_MCB1700.c 0x00000000   Number         0  led_mcb1700.o ABSOLUTE
    C:\Keil_v5\ARM\PACK\Keil\LPC1700_DFP\2.5.0\RTE_Driver\GPDMA_LPC17xx.c 0x00000000   Number         0  gpdma_lpc17xx.o ABSOLUTE
    C:\Keil_v5\ARM\PACK\Keil\LPC1700_DFP\2.5.0\RTE_Driver\GPIO_LPC17xx.c 0x00000000   Number         0  gpio_lpc17xx.o ABSOLUTE
    C:\Keil_v5\ARM\PACK\Keil\LPC1700_DFP\2.5.0\RTE_Driver\OTG_LPC17xx.c 0x00000000   Number         0  otg_lpc17xx.o ABSOLUTE
    C:\Keil_v5\ARM\PACK\Keil\LPC1700_DFP\2.5.0\RTE_Driver\PIN_LPC17xx.c 0x00000000   Number         0  pin_lpc17xx.o ABSOLUTE
    C:\Keil_v5\ARM\PACK\Keil\LPC1700_DFP\2.5.0\RTE_Driver\SSP_LPC17xx.c 0x00000000   Number         0  ssp_lpc17xx.o ABSOLUTE
    C:\Keil_v5\ARM\PACK\Keil\LPC1700_DFP\2.5.0\RTE_Driver\UART_LPC17xx.c 0x00000000   Number         0  uart_lpc17xx.o ABSOLUTE
    C:\Keil_v5\ARM\PACK\Keil\LPC1700_DFP\2.5.0\RTE_Driver\USBD_LPC17xx.c 0x00000000   Number         0  usbd_lpc17xx.o ABSOLUTE
    C:\\Keil_v5\\ARM\\PACK\\Keil\\LPC1700_DFP\\2.5.0\\Boards\\Keil\\MCB1700\\Common\\GLCD_MCB1700.c 0x00000000   Number         0  glcd_mcb1700.o ABSOLUTE
    C:\\Keil_v5\\ARM\\PACK\\Keil\\LPC1700_DFP\\2.5.0\\RTE_Driver\\GPDMA_LPC17xx.c 0x00000000   Number         0  gpdma_lpc17xx.o ABSOLUTE
    C:\\Keil_v5\\ARM\\PACK\\Keil\\LPC1700_DFP\\2.5.0\\RTE_Driver\\GPIO_LPC17xx.c 0x00000000   Number         0  gpio_lpc17xx.o ABSOLUTE
    C:\\Keil_v5\\ARM\\PACK\\Keil\\LPC1700_DFP\\2.5.0\\RTE_Driver\\OTG_LPC17xx.c 0x00000000   Number         0  otg_lpc17xx.o ABSOLUTE
    C:\\Keil_v5\\ARM\\PACK\\Keil\\LPC1700_DFP\\2.5.0\\RTE_Driver\\PIN_LPC17xx.c 0x00000000   Number         0  pin_lpc17xx.o ABSOLUTE
    C:\\Keil_v5\\ARM\\PACK\\Keil\\LPC1700_DFP\\2.5.0\\RTE_Driver\\SSP_LPC17xx.c 0x00000000   Number         0  ssp_lpc17xx.o ABSOLUTE
    C:\\Keil_v5\\ARM\\PACK\\Keil\\LPC1700_DFP\\2.5.0\\RTE_Driver\\UART_LPC17xx.c 0x00000000   Number         0  uart_lpc17xx.o ABSOLUTE
    C:\\Keil_v5\\ARM\\PACK\\Keil\\LPC1700_DFP\\2.5.0\\RTE_Driver\\USBD_LPC17xx.c 0x00000000   Number         0  usbd_lpc17xx.o ABSOLUTE
    HAL_CM3.c                                0x00000000   Number         0  hal_cm3.o ABSOLUTE
    HAL_CM3.c                                0x00000000   Number         0  hal_cm3.o ABSOLUTE
    RL_ARM.s                                 0x00000000   Number         0  usbd_lib_cdc.o ABSOLUTE
    RL_ARM.s                                 0x00000000   Number         0  usbd_lib_drv.o ABSOLUTE
    RL_ARM.s                                 0x00000000   Number         0  usbd_lib_core.o ABSOLUTE
    RL_ARM.s                                 0x00000000   Number         0  usbd_lib_core_cdc.o ABSOLUTE
    RL_ARM.s                                 0x00000000   Number         0  usbd_lib_core_device.o ABSOLUTE
    RL_ARM.s                                 0x00000000   Number         0  usb_lib_ver.o ABSOLUTE
    RTE\CMSIS\RTX_Conf_CM.c                  0x00000000   Number         0  rtx_conf_cm.o ABSOLUTE
    RTE\Device\LPC1768\startup_LPC17xx.s     0x00000000   Number         0  startup_lpc17xx.o ABSOLUTE
    RTE\Device\LPC1768\system_LPC17xx.c      0x00000000   Number         0  system_lpc17xx.o ABSOLUTE
    RTE\USB\USBD_Config_0.c                  0x00000000   Number         0  usbd_config_0.o ABSOLUTE
    RTE\\CMSIS\\RTX_Conf_CM.c                0x00000000   Number         0  rtx_conf_cm.o ABSOLUTE
    RTE\\Device\\LPC1768\\system_LPC17xx.c   0x00000000   Number         0  system_lpc17xx.o ABSOLUTE
    RTE\\USB\\USBD_Config_0.c                0x00000000   Number         0  usbd_config_0.o ABSOLUTE
    SRC\\usb_lib_ver.c                       0x00000000   Number         0  usb_lib_ver.o ABSOLUTE
    SRC\\usbd_lib_cdc.c                      0x00000000   Number         0  usbd_lib_cdc.o ABSOLUTE
    SRC\\usbd_lib_core.c                     0x00000000   Number         0  usbd_lib_core.o ABSOLUTE
    SRC\\usbd_lib_core_cdc.c                 0x00000000   Number         0  usbd_lib_core_cdc.o ABSOLUTE
    SRC\\usbd_lib_core_device.c              0x00000000   Number         0  usbd_lib_core_device.o ABSOLUTE
    SRC\\usbd_lib_drv.c                      0x00000000   Number         0  usbd_lib_drv.o ABSOLUTE
    SRC\usb_lib_ver.c                        0x00000000   Number         0  usb_lib_ver.o ABSOLUTE
    SRC\usbd_lib_cdc.c                       0x00000000   Number         0  usbd_lib_cdc.o ABSOLUTE
    SRC\usbd_lib_core.c                      0x00000000   Number         0  usbd_lib_core.o ABSOLUTE
    SRC\usbd_lib_core_cdc.c                  0x00000000   Number         0  usbd_lib_core_cdc.o ABSOLUTE
    SRC\usbd_lib_core_device.c               0x00000000   Number         0  usbd_lib_core_device.o ABSOLUTE
    SRC\usbd_lib_drv.c                       0x00000000   Number         0  usbd_lib_drv.o ABSOLUTE
    SVC_Table.s                              0x00000000   Number         0  svc_table.o ABSOLUTE
    USBD_User_CDC_ACM_UART_0.c               0x00000000   Number         0  usbd_user_cdc_acm_uart_0.o ABSOLUTE
    USBD_User_CDC_ACM_UART_0.c               0x00000000   Number         0  usbd_user_cdc_acm_uart_0.o ABSOLUTE
    VirtualCOM.c                             0x00000000   Number         0  virtualcom.o ABSOLUTE
    VirtualCOM.c                             0x00000000   Number         0  virtualcom.o ABSOLUTE
    dc.s                                     0x00000000   Number         0  dc.o ABSOLUTE
    !!!main                                  0x000000cc   Section        8  __main.o(!!!main)
    !!!scatter                               0x000000d4   Section       52  __scatter.o(!!!scatter)
    !!dczerorl                               0x00000108   Section       58  __dczerorl.o(!!dczerorl)
    !!handler_zi                             0x00000144   Section       28  __scatter_zi.o(!!handler_zi)
    .ARM.Collect$$libinit$$00000000          0x00000160   Section        2  libinit.o(.ARM.Collect$$libinit$$00000000)
    .ARM.Collect$$libinit$$00000002          0x00000162   Section        0  libinit2.o(.ARM.Collect$$libinit$$00000002)
    .ARM.Collect$$libinit$$00000004          0x00000162   Section        0  libinit2.o(.ARM.Collect$$libinit$$00000004)
    .ARM.Collect$$libinit$$0000000A          0x00000162   Section        0  libinit2.o(.ARM.Collect$$libinit$$0000000A)
    .ARM.Collect$$libinit$$0000000C          0x00000162   Section        0  libinit2.o(.ARM.Collect$$libinit$$0000000C)
    .ARM.Collect$$libinit$$0000000E          0x00000162   Section        0  libinit2.o(.ARM.Collect$$libinit$$0000000E)
    .ARM.Collect$$libinit$$00000011          0x00000162   Section        0  libinit2.o(.ARM.Collect$$libinit$$00000011)
    .ARM.Collect$$libinit$$00000013          0x00000162   Section        0  libinit2.o(.ARM.Collect$$libinit$$00000013)
    .ARM.Collect$$libinit$$00000015          0x00000162   Section        0  libinit2.o(.ARM.Collect$$libinit$$00000015)
    .ARM.Collect$$libinit$$00000017          0x00000162   Section        0  libinit2.o(.ARM.Collect$$libinit$$00000017)
    .ARM.Collect$$libinit$$00000019          0x00000162   Section        0  libinit2.o(.ARM.Collect$$libinit$$00000019)
    .ARM.Collect$$libinit$$0000001B          0x00000162   Section        0  libinit2.o(.ARM.Collect$$libinit$$0000001B)
    .ARM.Collect$$libinit$$0000001D          0x00000162   Section        0  libinit2.o(.ARM.Collect$$libinit$$0000001D)
    .ARM.Collect$$libinit$$0000001F          0x00000162   Section        0  libinit2.o(.ARM.Collect$$libinit$$0000001F)
    .ARM.Collect$$libinit$$00000021          0x00000162   Section        0  libinit2.o(.ARM.Collect$$libinit$$00000021)
    .ARM.Collect$$libinit$$00000023          0x00000162   Section        0  libinit2.o(.ARM.Collect$$libinit$$00000023)
    .ARM.Collect$$libinit$$00000025          0x00000162   Section        0  libinit2.o(.ARM.Collect$$libinit$$00000025)
    .ARM.Collect$$libinit$$0000002C          0x00000162   Section        0  libinit2.o(.ARM.Collect$$libinit$$0000002C)
    .ARM.Collect$$libinit$$0000002E          0x00000162   Section        0  libinit2.o(.ARM.Collect$$libinit$$0000002E)
    .ARM.Collect$$libinit$$00000030          0x00000162   Section        0  libinit2.o(.ARM.Collect$$libinit$$00000030)
    .ARM.Collect$$libinit$$00000032          0x00000162   Section        0  libinit2.o(.ARM.Collect$$libinit$$00000032)
    .ARM.Collect$$libinit$$00000033          0x00000162   Section        2  libinit2.o(.ARM.Collect$$libinit$$00000033)
    .ARM.Collect$$libshutdown$$00000000      0x00000164   Section        2  libshutdown.o(.ARM.Collect$$libshutdown$$00000000)
    .ARM.Collect$$libshutdown$$00000002      0x00000166   Section        0  libshutdown2.o(.ARM.Collect$$libshutdown$$00000002)
    .ARM.Collect$$libshutdown$$00000004      0x00000166   Section        0  libshutdown2.o(.ARM.Collect$$libshutdown$$00000004)
    .ARM.Collect$$libshutdown$$00000007      0x00000166   Section        0  libshutdown2.o(.ARM.Collect$$libshutdown$$00000007)
    .ARM.Collect$$libshutdown$$0000000A      0x00000166   Section        0  libshutdown2.o(.ARM.Collect$$libshutdown$$0000000A)
    .ARM.Collect$$libshutdown$$0000000C      0x00000166   Section        0  libshutdown2.o(.ARM.Collect$$libshutdown$$0000000C)
    .ARM.Collect$$libshutdown$$0000000F      0x00000166   Section        0  libshutdown2.o(.ARM.Collect$$libshutdown$$0000000F)
    .ARM.Collect$$libshutdown$$00000010      0x00000166   Section        2  libshutdown2.o(.ARM.Collect$$libshutdown$$00000010)
    .ARM.Collect$$rtentry$$00000000          0x00000168   Section        0  __rtentry.o(.ARM.Collect$$rtentry$$00000000)
    .ARM.Collect$$rtentry$$00000002          0x00000168   Section        0  __rtentry2.o(.ARM.Collect$$rtentry$$00000002)
    .ARM.Collect$$rtentry$$00000004          0x00000168   Section        6  __rtentry4.o(.ARM.Collect$$rtentry$$00000004)
    .ARM.Collect$$rtentry$$00000009          0x0000016e   Section        0  __rtentry2.o(.ARM.Collect$$rtentry$$00000009)
    .ARM.Collect$$rtentry$$0000000A          0x0000016e   Section        4  __rtentry2.o(.ARM.Collect$$rtentry$$0000000A)
    .ARM.Collect$$rtentry$$0000000B          0x00000172   Section        8  __rtentry2.o(.ARM.Collect$$rtentry$$0000000B)
    .ARM.Collect$$rtentry$$0000000D          0x0000017a   Section        8  __rtentry2.o(.ARM.Collect$$rtentry$$0000000D)
    .ARM.Collect$$rtexit$$00000000           0x00000182   Section        2  rtexit.o(.ARM.Collect$$rtexit$$00000000)
    .ARM.Collect$$rtexit$$00000002           0x00000184   Section        0  rtexit2.o(.ARM.Collect$$rtexit$$00000002)
    .ARM.Collect$$rtexit$$00000003           0x00000184   Section        4  rtexit2.o(.ARM.Collect$$rtexit$$00000003)
    .ARM.Collect$$rtexit$$00000004           0x00000188   Section        6  rtexit2.o(.ARM.Collect$$rtexit$$00000004)
    .emb_text                                0x00000190   Section       28  rtx_conf_cm.o(.emb_text)
    .emb_text                                0x000001ac   Section      304  hal_cm3.o(.emb_text)
    .text                                    0x000002dc   Section        8  libspace.o(.text)
    .text                                    0x000002e4   Section        0  exit.o(.text)
    .text                                    0x000002f6   Section        0  heapauxi.o(.text)
    .ARM.__at_0x02FC                         0x000002fc   Section        4  startup_lpc17xx.o(.ARM.__at_0x02FC)
    .text                                    0x00000300   Section       60  startup_lpc17xx.o(.text)
    .text                                    0x0000033c   Section      238  lludivv7m.o(.text)
    .text                                    0x0000042a   Section      138  rt_memcpy_v6.o(.text)
    .text                                    0x000004b4   Section       68  rt_memclr.o(.text)
    .text                                    0x000004f8   Section       78  rt_memclr_w.o(.text)
    .text                                    0x00000546   Section      100  rt_memcpy_w.o(.text)
    .text                                    0x000005ac   Section        0  sys_exit.o(.text)
    .text                                    0x000005b8   Section       74  sys_stackheap_outer.o(.text)
    .text                                    0x00000602   Section        2  use_no_semi.o(.text)
    .text                                    0x00000604   Section        0  indicate_semi.o(.text)
    SVC_TABLE                                0x00000604   Section        4  svc_table.o(SVC_TABLE)
    i.ADC_IRQHandler                         0x00000608   Section        0  virtualcom.o(i.ADC_IRQHandler)
    i.CDC0_ACM_UART_to_USB_Thread            0x0000064c   Section        0  usbd_user_cdc_acm_uart_0.o(i.CDC0_ACM_UART_to_USB_Thread)
    i.CDC0_ACM_UART_to_USB_Threadm           0x000006b4   Section        0  virtualcom.o(i.CDC0_ACM_UART_to_USB_Threadm)
    i.Clear_Channel_active_flag              0x000006d8   Section        0  gpdma_lpc17xx.o(i.Clear_Channel_active_flag)
    Clear_Channel_active_flag                0x000006d9   Thumb Code    24  gpdma_lpc17xx.o(i.Clear_Channel_active_flag)
    i.DMA_IRQHandler                         0x000006f4   Section        0  gpdma_lpc17xx.o(i.DMA_IRQHandler)
    i.GPDMA_ChannelConfigure                 0x000007dc   Section        0  gpdma_lpc17xx.o(i.GPDMA_ChannelConfigure)
    i.GPDMA_ChannelDisable                   0x000008a4   Section        0  gpdma_lpc17xx.o(i.GPDMA_ChannelDisable)
    i.GPDMA_ChannelGetCount                  0x000008d0   Section        0  gpdma_lpc17xx.o(i.GPDMA_ChannelGetCount)
    i.GPDMA_Initialize                       0x00000900   Section        0  gpdma_lpc17xx.o(i.GPDMA_Initialize)
    i.GPDMA_PeripheralSelect                 0x00000974   Section        0  gpdma_lpc17xx.o(i.GPDMA_PeripheralSelect)
    i.GPDMA_Uninitialize                     0x000009a8   Section        0  gpdma_lpc17xx.o(i.GPDMA_Uninitialize)
    i.GetUsartClockFreq                      0x000009f0   Section        0  uart_lpc17xx.o(i.GetUsartClockFreq)
    GetUsartClockFreq                        0x000009f1   Thumb Code    54  uart_lpc17xx.o(i.GetUsartClockFreq)
    i.PIN_Configure                          0x00000a2c   Section        0  pin_lpc17xx.o(i.PIN_Configure)
    i.SIE_EP_WrCmd                           0x00000a94   Section        0  usbd_lpc17xx.o(i.SIE_EP_WrCmd)
    SIE_EP_WrCmd                             0x00000a95   Thumb Code    38  usbd_lpc17xx.o(i.SIE_EP_WrCmd)
    i.SIE_RdCmdData                          0x00000ac0   Section        0  usbd_lpc17xx.o(i.SIE_RdCmdData)
    SIE_RdCmdData                            0x00000ac1   Thumb Code    26  usbd_lpc17xx.o(i.SIE_RdCmdData)
    i.SIE_WrCmd                              0x00000ae0   Section        0  usbd_lpc17xx.o(i.SIE_WrCmd)
    SIE_WrCmd                                0x00000ae1   Thumb Code    22  usbd_lpc17xx.o(i.SIE_WrCmd)
    i.SIE_WrCmdData                          0x00000afc   Section        0  usbd_lpc17xx.o(i.SIE_WrCmdData)
    SIE_WrCmdData                            0x00000afd   Thumb Code    38  usbd_lpc17xx.o(i.SIE_WrCmdData)
    i.SSP1_GPDMA_Rx_SignalEvent              0x00000b28   Section        0  ssp_lpc17xx.o(i.SSP1_GPDMA_Rx_SignalEvent)
    i.SSP1_GPDMA_Tx_SignalEvent              0x00000b34   Section        0  ssp_lpc17xx.o(i.SSP1_GPDMA_Tx_SignalEvent)
    i.SSP1_IRQHandler                        0x00000b40   Section        0  ssp_lpc17xx.o(i.SSP1_IRQHandler)
    i.SSPx_GPDMA_Rx_SignalEvent              0x00000b4c   Section        0  ssp_lpc17xx.o(i.SSPx_GPDMA_Rx_SignalEvent)
    i.SSPx_GPDMA_Tx_SignalEvent              0x00000b6a   Section        0  ssp_lpc17xx.o(i.SSPx_GPDMA_Tx_SignalEvent)
    i.SSPx_IRQHandler                        0x00000b76   Section        0  ssp_lpc17xx.o(i.SSPx_IRQHandler)
    SSPx_IRQHandler                          0x00000b77   Thumb Code   206  ssp_lpc17xx.o(i.SSPx_IRQHandler)
    i.Set_Channel_active_flag                0x00000c44   Section        0  gpdma_lpc17xx.o(i.Set_Channel_active_flag)
    Set_Channel_active_flag                  0x00000c45   Thumb Code    40  gpdma_lpc17xx.o(i.Set_Channel_active_flag)
    i.SystemInit                             0x00000c70   Section        0  system_lpc17xx.o(i.SystemInit)
    i.TIMER0_IRQHandler                      0x00000d44   Section        0  virtualcom.o(i.TIMER0_IRQHandler)
    i.UART1_IRQHandler                       0x00000d64   Section        0  uart_lpc17xx.o(i.UART1_IRQHandler)
    i.UART_Callback                          0x00000d70   Section        0  usbd_user_cdc_acm_uart_0.o(i.UART_Callback)
    UART_Callback                            0x00000d71   Thumb Code    62  usbd_user_cdc_acm_uart_0.o(i.UART_Callback)
    i.USART1_Control                         0x00000dc0   Section        0  uart_lpc17xx.o(i.USART1_Control)
    USART1_Control                           0x00000dc1   Thumb Code     6  uart_lpc17xx.o(i.USART1_Control)
    i.USART1_GPDMA_Rx_Event                  0x00000dcc   Section        0  uart_lpc17xx.o(i.USART1_GPDMA_Rx_Event)
    i.USART1_GPDMA_Tx_Event                  0x00000e30   Section        0  uart_lpc17xx.o(i.USART1_GPDMA_Tx_Event)
    i.USART1_GetCapabilities                 0x00000e68   Section        0  uart_lpc17xx.o(i.USART1_GetCapabilities)
    USART1_GetCapabilities                   0x00000e69   Thumb Code     6  uart_lpc17xx.o(i.USART1_GetCapabilities)
    i.USART1_GetModemStatus                  0x00000e74   Section        0  uart_lpc17xx.o(i.USART1_GetModemStatus)
    USART1_GetModemStatus                    0x00000e75   Thumb Code     6  uart_lpc17xx.o(i.USART1_GetModemStatus)
    i.USART1_GetRxCount                      0x00000e80   Section        0  uart_lpc17xx.o(i.USART1_GetRxCount)
    USART1_GetRxCount                        0x00000e81   Thumb Code    18  uart_lpc17xx.o(i.USART1_GetRxCount)
    i.USART1_GetStatus                       0x00000e98   Section        0  uart_lpc17xx.o(i.USART1_GetStatus)
    USART1_GetStatus                         0x00000e99   Thumb Code     6  uart_lpc17xx.o(i.USART1_GetStatus)
    i.USART1_GetTxCount                      0x00000ea4   Section        0  uart_lpc17xx.o(i.USART1_GetTxCount)
    USART1_GetTxCount                        0x00000ea5   Thumb Code    18  uart_lpc17xx.o(i.USART1_GetTxCount)
    i.USART1_Initialize                      0x00000ebc   Section        0  uart_lpc17xx.o(i.USART1_Initialize)
    USART1_Initialize                        0x00000ebd   Thumb Code     6  uart_lpc17xx.o(i.USART1_Initialize)
    i.USART1_PowerControl                    0x00000ec8   Section        0  uart_lpc17xx.o(i.USART1_PowerControl)
    USART1_PowerControl                      0x00000ec9   Thumb Code     6  uart_lpc17xx.o(i.USART1_PowerControl)
    i.USART1_Receive                         0x00000ed4   Section        0  uart_lpc17xx.o(i.USART1_Receive)
    USART1_Receive                           0x00000ed5   Thumb Code     6  uart_lpc17xx.o(i.USART1_Receive)
    i.USART1_Send                            0x00000ee0   Section        0  uart_lpc17xx.o(i.USART1_Send)
    USART1_Send                              0x00000ee1   Thumb Code     6  uart_lpc17xx.o(i.USART1_Send)
    i.USART1_SetModemControl                 0x00000eec   Section        0  uart_lpc17xx.o(i.USART1_SetModemControl)
    USART1_SetModemControl                   0x00000eed   Thumb Code     6  uart_lpc17xx.o(i.USART1_SetModemControl)
    i.USART1_Transfer                        0x00000ef8   Section        0  uart_lpc17xx.o(i.USART1_Transfer)
    USART1_Transfer                          0x00000ef9   Thumb Code    82  uart_lpc17xx.o(i.USART1_Transfer)
    i.USART1_Uninitialize                    0x00000f50   Section        0  uart_lpc17xx.o(i.USART1_Uninitialize)
    USART1_Uninitialize                      0x00000f51   Thumb Code     6  uart_lpc17xx.o(i.USART1_Uninitialize)
    i.USART_Control                          0x00000f5c   Section        0  uart_lpc17xx.o(i.USART_Control)
    USART_Control                            0x00000f5d   Thumb Code  1252  uart_lpc17xx.o(i.USART_Control)
    i.USART_GetModemStatus                   0x00001444   Section        0  uart_lpc17xx.o(i.USART_GetModemStatus)
    USART_GetModemStatus                     0x00001445   Thumb Code   184  uart_lpc17xx.o(i.USART_GetModemStatus)
    i.USART_GetStatus                        0x000014fc   Section        0  uart_lpc17xx.o(i.USART_GetStatus)
    USART_GetStatus                          0x000014fd   Thumb Code   142  uart_lpc17xx.o(i.USART_GetStatus)
    i.USART_IRQHandler                       0x0000158c   Section        0  uart_lpc17xx.o(i.USART_IRQHandler)
    USART_IRQHandler                         0x0000158d   Thumb Code   474  uart_lpc17xx.o(i.USART_IRQHandler)
    i.USART_Initialize                       0x00001766   Section        0  uart_lpc17xx.o(i.USART_Initialize)
    USART_Initialize                         0x00001767   Thumb Code   220  uart_lpc17xx.o(i.USART_Initialize)
    i.USART_PowerControl                     0x00001842   Section        0  uart_lpc17xx.o(i.USART_PowerControl)
    USART_PowerControl                       0x00001843   Thumb Code   488  uart_lpc17xx.o(i.USART_PowerControl)
    i.USART_Receive                          0x00001a2a   Section        0  uart_lpc17xx.o(i.USART_Receive)
    USART_Receive                            0x00001a2b   Thumb Code   226  uart_lpc17xx.o(i.USART_Receive)
    i.USART_RxLineIntHandler                 0x00001b0c   Section        0  uart_lpc17xx.o(i.USART_RxLineIntHandler)
    USART_RxLineIntHandler                   0x00001b0d   Thumb Code    86  uart_lpc17xx.o(i.USART_RxLineIntHandler)
    i.USART_Send                             0x00001b62   Section        0  uart_lpc17xx.o(i.USART_Send)
    USART_Send                               0x00001b63   Thumb Code   310  uart_lpc17xx.o(i.USART_Send)
    i.USART_SetBaudrate                      0x00001c98   Section        0  uart_lpc17xx.o(i.USART_SetBaudrate)
    i.USART_SetModemControl                  0x00001d68   Section        0  uart_lpc17xx.o(i.USART_SetModemControl)
    USART_SetModemControl                    0x00001d69   Thumb Code   104  uart_lpc17xx.o(i.USART_SetModemControl)
    i.USART_Uninitialize                     0x00001dd0   Section        0  uart_lpc17xx.o(i.USART_Uninitialize)
    USART_Uninitialize                       0x00001dd1   Thumb Code   196  uart_lpc17xx.o(i.USART_Uninitialize)
    i.USARTx_GetVersion                      0x00001e94   Section        0  uart_lpc17xx.o(i.USARTx_GetVersion)
    USARTx_GetVersion                        0x00001e95   Thumb Code     6  uart_lpc17xx.o(i.USARTx_GetVersion)
    i.USBD0_Core_Thread                      0x00001ea0   Section        0  usbd_lib_core.o(i.USBD0_Core_Thread)
    i.USBD0_SignalDeviceEvent                0x00001ea6   Section        0  usbd_config_0.o(i.USBD0_SignalDeviceEvent)
    i.USBD0_SignalEndpointEvent              0x00001eae   Section        0  usbd_config_0.o(i.USBD0_SignalEndpointEvent)
    i.USBD_CDC0_ACM_DataReceived             0x00001eb8   Section        0  usbd_user_cdc_acm_uart_0.o(i.USBD_CDC0_ACM_DataReceived)
    i.USBD_CDC0_ACM_DataSent                 0x00001ee8   Section        0  usbd_config_0.o(i.USBD_CDC0_ACM_DataSent)
    i.USBD_CDC0_ACM_GetLineCoding            0x00001eec   Section        0  usbd_user_cdc_acm_uart_0.o(i.USBD_CDC0_ACM_GetLineCoding)
    i.USBD_CDC0_ACM_Initialize               0x00001f04   Section        0  usbd_user_cdc_acm_uart_0.o(i.USBD_CDC0_ACM_Initialize)
    i.USBD_CDC0_ACM_Reset                    0x00001f34   Section        0  usbd_user_cdc_acm_uart_0.o(i.USBD_CDC0_ACM_Reset)
    i.USBD_CDC0_ACM_SetControlLineState      0x00001f50   Section        0  usbd_user_cdc_acm_uart_0.o(i.USBD_CDC0_ACM_SetControlLineState)
    i.USBD_CDC0_ACM_SetLineCoding            0x00001f54   Section        0  usbd_user_cdc_acm_uart_0.o(i.USBD_CDC0_ACM_SetLineCoding)
    i.USBD_CDC0_Bulk_Thread                  0x00002038   Section        0  usbd_lib_cdc.o(i.USBD_CDC0_Bulk_Thread)
    i.USBD_CDC0_Int_Thread                   0x0000203e   Section        0  usbd_lib_cdc.o(i.USBD_CDC0_Int_Thread)
    i.USBD_CDC0_NCM_GetCrcMode               0x00002044   Section        0  usbd_config_0.o(i.USBD_CDC0_NCM_GetCrcMode)
    i.USBD_CDC0_NCM_GetEthernetPowerManagementPatternFilter 0x00002048   Section        0  usbd_config_0.o(i.USBD_CDC0_NCM_GetEthernetPowerManagementPatternFilter)
    i.USBD_CDC0_NCM_GetEthernetStatistic     0x0000204c   Section        0  usbd_config_0.o(i.USBD_CDC0_NCM_GetEthernetStatistic)
    i.USBD_CDC0_NCM_GetMaxDatagramSize       0x00002050   Section        0  usbd_config_0.o(i.USBD_CDC0_NCM_GetMaxDatagramSize)
    i.USBD_CDC0_NCM_GetNetAddress            0x00002054   Section        0  usbd_config_0.o(i.USBD_CDC0_NCM_GetNetAddress)
    i.USBD_CDC0_NCM_GetNtbFormat             0x00002058   Section        0  usbd_config_0.o(i.USBD_CDC0_NCM_GetNtbFormat)
    i.USBD_CDC0_NCM_GetNtbInputSize          0x0000205c   Section        0  usbd_config_0.o(i.USBD_CDC0_NCM_GetNtbInputSize)
    i.USBD_CDC0_NCM_GetNtbParameters         0x00002060   Section        0  usbd_config_0.o(i.USBD_CDC0_NCM_GetNtbParameters)
    i.USBD_CDC0_NCM_Initialize               0x00002064   Section        0  usbd_config_0.o(i.USBD_CDC0_NCM_Initialize)
    i.USBD_CDC0_NCM_NTB_IN_Sent              0x00002066   Section        0  usbd_config_0.o(i.USBD_CDC0_NCM_NTB_IN_Sent)
    i.USBD_CDC0_NCM_NTB_OUT_Received         0x00002068   Section        0  usbd_config_0.o(i.USBD_CDC0_NCM_NTB_OUT_Received)
    i.USBD_CDC0_NCM_Reset                    0x0000206a   Section        0  usbd_config_0.o(i.USBD_CDC0_NCM_Reset)
    i.USBD_CDC0_NCM_SetCrcMode               0x0000206c   Section        0  usbd_config_0.o(i.USBD_CDC0_NCM_SetCrcMode)
    i.USBD_CDC0_NCM_SetEthernetMulticastFilters 0x00002070   Section        0  usbd_config_0.o(i.USBD_CDC0_NCM_SetEthernetMulticastFilters)
    i.USBD_CDC0_NCM_SetEthernetPacketFilter  0x00002074   Section        0  usbd_config_0.o(i.USBD_CDC0_NCM_SetEthernetPacketFilter)
    i.USBD_CDC0_NCM_SetEthernetPowerManagementPatternFilter 0x00002078   Section        0  usbd_config_0.o(i.USBD_CDC0_NCM_SetEthernetPowerManagementPatternFilter)
    i.USBD_CDC0_NCM_SetMaxDatagramSize       0x0000207c   Section        0  usbd_config_0.o(i.USBD_CDC0_NCM_SetMaxDatagramSize)
    i.USBD_CDC0_NCM_SetNetAddress            0x00002080   Section        0  usbd_config_0.o(i.USBD_CDC0_NCM_SetNetAddress)
    i.USBD_CDC0_NCM_SetNtbFormat             0x00002084   Section        0  usbd_config_0.o(i.USBD_CDC0_NCM_SetNtbFormat)
    i.USBD_CDC0_NCM_SetNtbInputSize          0x00002088   Section        0  usbd_config_0.o(i.USBD_CDC0_NCM_SetNtbInputSize)
    i.USBD_CDC0_NCM_Start                    0x0000208c   Section        0  usbd_config_0.o(i.USBD_CDC0_NCM_Start)
    i.USBD_CDC0_NCM_Stop                     0x0000208e   Section        0  usbd_config_0.o(i.USBD_CDC0_NCM_Stop)
    i.USBD_CDC_ACM_CoreClearCommFeature      0x00002090   Section        0  usbd_lib_cdc.o(i.USBD_CDC_ACM_CoreClearCommFeature)
    i.USBD_CDC_ACM_CoreGetCommFeature        0x00002094   Section        0  usbd_lib_cdc.o(i.USBD_CDC_ACM_CoreGetCommFeature)
    i.USBD_CDC_ACM_CoreGetEncapsulatedResponse 0x00002098   Section        0  usbd_lib_cdc.o(i.USBD_CDC_ACM_CoreGetEncapsulatedResponse)
    i.USBD_CDC_ACM_CoreGetLineCoding         0x0000209c   Section        0  usbd_lib_cdc.o(i.USBD_CDC_ACM_CoreGetLineCoding)
    i.USBD_CDC_ACM_CoreSendBreak             0x000020f0   Section        0  usbd_lib_cdc.o(i.USBD_CDC_ACM_CoreSendBreak)
    i.USBD_CDC_ACM_CoreSendEncapsulatedCommand 0x000020f4   Section        0  usbd_lib_cdc.o(i.USBD_CDC_ACM_CoreSendEncapsulatedCommand)
    i.USBD_CDC_ACM_CoreSetCommFeature        0x000020f8   Section        0  usbd_lib_cdc.o(i.USBD_CDC_ACM_CoreSetCommFeature)
    i.USBD_CDC_ACM_CoreSetControlLineState   0x000020fc   Section        0  usbd_lib_cdc.o(i.USBD_CDC_ACM_CoreSetControlLineState)
    i.USBD_CDC_ACM_CoreSetLineCoding         0x00002130   Section        0  usbd_lib_cdc.o(i.USBD_CDC_ACM_CoreSetLineCoding)
    i.USBD_CDC_ACM_ReadData                  0x00002180   Section        0  usbd_lib_cdc.o(i.USBD_CDC_ACM_ReadData)
    i.USBD_CDC_ACM_WriteData                 0x0000224c   Section        0  usbd_lib_cdc.o(i.USBD_CDC_ACM_WriteData)
    i.USBD_CDC_Bulk_Thread                   0x000022f8   Section        0  usbd_lib_cdc.o(i.USBD_CDC_Bulk_Thread)
    i.USBD_CDC_CheckInstance                 0x0000232c   Section        0  usbd_lib_cdc.o(i.USBD_CDC_CheckInstance)
    USBD_CDC_CheckInstance                   0x0000232d   Thumb Code    54  usbd_lib_cdc.o(i.USBD_CDC_CheckInstance)
    i.USBD_CDC_EndpointStart                 0x00002374   Section        0  usbd_lib_cdc.o(i.USBD_CDC_EndpointStart)
    i.USBD_CDC_EndpointStop                  0x00002404   Section        0  usbd_lib_cdc.o(i.USBD_CDC_EndpointStop)
    i.USBD_CDC_EpBulkIn                      0x00002454   Section        0  usbd_lib_cdc.o(i.USBD_CDC_EpBulkIn)
    USBD_CDC_EpBulkIn                        0x00002455   Thumb Code   434  usbd_lib_cdc.o(i.USBD_CDC_EpBulkIn)
    i.USBD_CDC_EpBulkOut                     0x00002618   Section        0  usbd_lib_cdc.o(i.USBD_CDC_EpBulkOut)
    USBD_CDC_EpBulkOut                       0x00002619   Thumb Code   376  usbd_lib_cdc.o(i.USBD_CDC_EpBulkOut)
    i.USBD_CDC_Initialize                    0x000027a0   Section        0  usbd_lib_cdc.o(i.USBD_CDC_Initialize)
    i.USBD_CDC_Int_Thread                    0x00002810   Section        0  usbd_lib_cdc.o(i.USBD_CDC_Int_Thread)
    i.USBD_CDC_NCM_CoreGetCrcMode            0x00002888   Section        0  usbd_lib_cdc.o(i.USBD_CDC_NCM_CoreGetCrcMode)
    i.USBD_CDC_NCM_CoreGetEthernetPowerManagementPatternFilter 0x000028ac   Section        0  usbd_lib_cdc.o(i.USBD_CDC_NCM_CoreGetEthernetPowerManagementPatternFilter)
    i.USBD_CDC_NCM_CoreGetEthernetStatistic  0x000028d8   Section        0  usbd_lib_cdc.o(i.USBD_CDC_NCM_CoreGetEthernetStatistic)
    i.USBD_CDC_NCM_CoreGetMaxDatagramSize    0x00002904   Section        0  usbd_lib_cdc.o(i.USBD_CDC_NCM_CoreGetMaxDatagramSize)
    i.USBD_CDC_NCM_CoreGetNetAddress         0x00002928   Section        0  usbd_lib_cdc.o(i.USBD_CDC_NCM_CoreGetNetAddress)
    i.USBD_CDC_NCM_CoreGetNtbFormat          0x0000294c   Section        0  usbd_lib_cdc.o(i.USBD_CDC_NCM_CoreGetNtbFormat)
    i.USBD_CDC_NCM_CoreGetNtbInputSize       0x00002970   Section        0  usbd_lib_cdc.o(i.USBD_CDC_NCM_CoreGetNtbInputSize)
    i.USBD_CDC_NCM_CoreGetNtbParameters      0x00002994   Section        0  usbd_lib_cdc.o(i.USBD_CDC_NCM_CoreGetNtbParameters)
    i.USBD_CDC_NCM_CoreSetCrcMode            0x000029b8   Section        0  usbd_lib_cdc.o(i.USBD_CDC_NCM_CoreSetCrcMode)
    i.USBD_CDC_NCM_CoreSetEthernetMulticastFilters 0x000029f0   Section        0  usbd_lib_cdc.o(i.USBD_CDC_NCM_CoreSetEthernetMulticastFilters)
    i.USBD_CDC_NCM_CoreSetEthernetPacketFilter 0x00002a1c   Section        0  usbd_lib_cdc.o(i.USBD_CDC_NCM_CoreSetEthernetPacketFilter)
    i.USBD_CDC_NCM_CoreSetEthernetPowerManagementPatternFilter 0x00002a40   Section        0  usbd_lib_cdc.o(i.USBD_CDC_NCM_CoreSetEthernetPowerManagementPatternFilter)
    i.USBD_CDC_NCM_CoreSetMaxDatagramSize    0x00002a70   Section        0  usbd_lib_cdc.o(i.USBD_CDC_NCM_CoreSetMaxDatagramSize)
    i.USBD_CDC_NCM_CoreSetNetAddress         0x00002aa4   Section        0  usbd_lib_cdc.o(i.USBD_CDC_NCM_CoreSetNetAddress)
    i.USBD_CDC_NCM_CoreSetNtbFormat          0x00002ac8   Section        0  usbd_lib_cdc.o(i.USBD_CDC_NCM_CoreSetNtbFormat)
    i.USBD_CDC_NCM_CoreSetNtbInputSize       0x00002b00   Section        0  usbd_lib_cdc.o(i.USBD_CDC_NCM_CoreSetNtbInputSize)
    i.USBD_CDC_Reset                         0x00002b34   Section        0  usbd_lib_cdc.o(i.USBD_CDC_Reset)
    i.USBD_CheckDevice                       0x00002c00   Section        0  usbd_lib_core.o(i.USBD_CheckDevice)
    USBD_CheckDevice                         0x00002c01   Thumb Code    32  usbd_lib_core.o(i.USBD_CheckDevice)
    i.USBD_ClassInitialize                   0x00002c28   Section        0  usbd_config_0.o(i.USBD_ClassInitialize)
    i.USBD_Class_Endpoint0_InDataSent        0x00002c60   Section        0  usbd_config_0.o(i.USBD_Class_Endpoint0_InDataSent)
    i.USBD_Class_Endpoint0_OutDataReceived   0x00002c64   Section        0  usbd_config_0.o(i.USBD_Class_Endpoint0_OutDataReceived)
    i.USBD_Class_Endpoint0_SetupPacketProcessed 0x00002c68   Section        0  usbd_config_0.o(i.USBD_Class_Endpoint0_SetupPacketProcessed)
    i.USBD_Class_Endpoint0_SetupPacketReceived 0x00002c6a   Section        0  usbd_config_0.o(i.USBD_Class_Endpoint0_SetupPacketReceived)
    i.USBD_Connect                           0x00002c6e   Section        0  usbd_lib_core.o(i.USBD_Connect)
    i.USBD_Core                              0x00002c88   Section        0  usbd_lib_core.o(i.USBD_Core)
    USBD_Core                                0x00002c89   Thumb Code   188  usbd_lib_core.o(i.USBD_Core)
    i.USBD_Core_Endpoint0_InDataSent         0x00002d60   Section        0  usbd_lib_core_device.o(i.USBD_Core_Endpoint0_InDataSent)
    i.USBD_Core_Endpoint0_OutDataReceived    0x00002da4   Section        0  usbd_lib_core_device.o(i.USBD_Core_Endpoint0_OutDataReceived)
    i.USBD_Core_Endpoint0_SetupPacketProcessed 0x00002de8   Section        0  usbd_lib_core_device.o(i.USBD_Core_Endpoint0_SetupPacketProcessed)
    i.USBD_Core_Endpoint0_SetupPacketReceived 0x00002e24   Section        0  usbd_lib_core_device.o(i.USBD_Core_Endpoint0_SetupPacketReceived)
    i.USBD_Core_Thread                       0x00002e74   Section        0  usbd_lib_core.o(i.USBD_Core_Thread)
    i.USBD_DataInStage                       0x00002f08   Section        0  usbd_lib_core.o(i.USBD_DataInStage)
    i.USBD_DataOutStage                      0x00002f58   Section        0  usbd_lib_core.o(i.USBD_DataOutStage)
    i.USBD_Delay                             0x00002f84   Section        0  usbd_config_0.o(i.USBD_Delay)
    i.USBD_Device0_ConfigurationChanged      0x00002f8e   Section        0  usbd_config_0.o(i.USBD_Device0_ConfigurationChanged)
    i.USBD_Device0_DisableRemoteWakeup       0x00002f90   Section        0  usbd_config_0.o(i.USBD_Device0_DisableRemoteWakeup)
    i.USBD_Device0_EnableRemoteWakeup        0x00002f92   Section        0  usbd_config_0.o(i.USBD_Device0_EnableRemoteWakeup)
    i.USBD_Device0_Endpoint0_InDataSent      0x00002f94   Section        0  usbd_config_0.o(i.USBD_Device0_Endpoint0_InDataSent)
    i.USBD_Device0_Endpoint0_OutDataReceived 0x00002f98   Section        0  usbd_config_0.o(i.USBD_Device0_Endpoint0_OutDataReceived)
    i.USBD_Device0_Endpoint0_SetupPacketProcessed 0x00002f9c   Section        0  usbd_config_0.o(i.USBD_Device0_Endpoint0_SetupPacketProcessed)
    i.USBD_Device0_Endpoint0_SetupPacketReceived 0x00002f9e   Section        0  usbd_config_0.o(i.USBD_Device0_Endpoint0_SetupPacketReceived)
    i.USBD_Device0_EventReset                0x00002fa2   Section        0  usbd_config_0.o(i.USBD_Device0_EventReset)
    i.USBD_Device0_HighSpeedActivated        0x00002fa4   Section        0  usbd_config_0.o(i.USBD_Device0_HighSpeedActivated)
    i.USBD_Device0_Initialize                0x00002fa6   Section        0  usbd_config_0.o(i.USBD_Device0_Initialize)
    i.USBD_Device0_Reset                     0x00002fa8   Section        0  usbd_config_0.o(i.USBD_Device0_Reset)
    i.USBD_Device0_Resumed                   0x00002fb0   Section        0  usbd_config_0.o(i.USBD_Device0_Resumed)
    i.USBD_Device0_Suspended                 0x00002fb2   Section        0  usbd_config_0.o(i.USBD_Device0_Suspended)
    i.USBD_Device0_VbusChanged               0x00002fb4   Section        0  usbd_config_0.o(i.USBD_Device0_VbusChanged)
    i.USBD_DeviceConnect                     0x00002fb8   Section        0  usbd_lpc17xx.o(i.USBD_DeviceConnect)
    USBD_DeviceConnect                       0x00002fb9   Thumb Code    72  usbd_lpc17xx.o(i.USBD_DeviceConnect)
    i.USBD_DeviceDisconnect                  0x00003010   Section        0  usbd_lpc17xx.o(i.USBD_DeviceDisconnect)
    USBD_DeviceDisconnect                    0x00003011   Thumb Code    74  usbd_lpc17xx.o(i.USBD_DeviceDisconnect)
    i.USBD_DeviceGetState                    0x00003068   Section        0  usbd_lpc17xx.o(i.USBD_DeviceGetState)
    USBD_DeviceGetState                      0x00003069   Thumb Code    34  usbd_lpc17xx.o(i.USBD_DeviceGetState)
    i.USBD_DeviceRemoteWakeup                0x00003090   Section        0  usbd_lpc17xx.o(i.USBD_DeviceRemoteWakeup)
    USBD_DeviceRemoteWakeup                  0x00003091   Thumb Code    96  usbd_lpc17xx.o(i.USBD_DeviceRemoteWakeup)
    i.USBD_DeviceSetAddress                  0x000030fc   Section        0  usbd_lpc17xx.o(i.USBD_DeviceSetAddress)
    USBD_DeviceSetAddress                    0x000030fd   Thumb Code    98  usbd_lpc17xx.o(i.USBD_DeviceSetAddress)
    i.USBD_DriverDeviceConnect               0x00003178   Section        0  usbd_lib_drv.o(i.USBD_DriverDeviceConnect)
    i.USBD_DriverDeviceSetAddress            0x000031e0   Section        0  usbd_lib_drv.o(i.USBD_DriverDeviceSetAddress)
    i.USBD_DriverEndpointConfigure           0x0000324c   Section        0  usbd_lib_drv.o(i.USBD_DriverEndpointConfigure)
    i.USBD_DriverEndpointStall               0x00003304   Section        0  usbd_lib_drv.o(i.USBD_DriverEndpointStall)
    i.USBD_DriverEndpointTransfer            0x000033b8   Section        0  usbd_lib_drv.o(i.USBD_DriverEndpointTransfer)
    i.USBD_DriverEndpointTransferAbort       0x00003498   Section        0  usbd_lib_drv.o(i.USBD_DriverEndpointTransferAbort)
    i.USBD_DriverEndpointTransferGetResult   0x0000354c   Section        0  usbd_lib_drv.o(i.USBD_DriverEndpointTransferGetResult)
    i.USBD_DriverEndpointUnconfigure         0x000035c0   Section        0  usbd_lib_drv.o(i.USBD_DriverEndpointUnconfigure)
    i.USBD_DriverGetCapabilities             0x00003670   Section        0  usbd_lib_drv.o(i.USBD_DriverGetCapabilities)
    i.USBD_DriverGetVersion                  0x00003680   Section        0  usbd_lib_drv.o(i.USBD_DriverGetVersion)
    i.USBD_DriverInitialize                  0x00003690   Section        0  usbd_lib_drv.o(i.USBD_DriverInitialize)
    i.USBD_DriverPowerControl                0x00003700   Section        0  usbd_lib_drv.o(i.USBD_DriverPowerControl)
    i.USBD_DriverReadSetupPacket             0x0000376c   Section        0  usbd_lib_drv.o(i.USBD_DriverReadSetupPacket)
    i.USBD_Endpoint0                         0x000037d8   Section        0  usbd_lib_core.o(i.USBD_Endpoint0)
    USBD_Endpoint0                           0x000037d9   Thumb Code   874  usbd_lib_core.o(i.USBD_Endpoint0)
    i.USBD_Endpoint0_ClearFeatureStall_MSC   0x00003b4c   Section        0  usbd_config_0.o(i.USBD_Endpoint0_ClearFeatureStall_MSC)
    i.USBD_Endpoint0_Out_ADC_ReqToEP         0x00003b4e   Section        0  usbd_config_0.o(i.USBD_Endpoint0_Out_ADC_ReqToEP)
    i.USBD_Endpoint0_Out_ADC_ReqToIF         0x00003b52   Section        0  usbd_config_0.o(i.USBD_Endpoint0_Out_ADC_ReqToIF)
    i.USBD_Endpoint0_Out_CDC_ReqToIF         0x00003b58   Section        0  usbd_lib_core_cdc.o(i.USBD_Endpoint0_Out_CDC_ReqToIF)
    i.USBD_Endpoint0_Out_HID_ReqToIF         0x00003c58   Section        0  usbd_config_0.o(i.USBD_Endpoint0_Out_HID_ReqToIF)
    i.USBD_Endpoint0_ReqGetDescriptor_HID    0x00003c5c   Section        0  usbd_config_0.o(i.USBD_Endpoint0_ReqGetDescriptor_HID)
    i.USBD_Endpoint0_ReqGetExtProp_CC        0x00003c60   Section        0  usbd_config_0.o(i.USBD_Endpoint0_ReqGetExtProp_CC)
    i.USBD_Endpoint0_Setup_ADC_ReqToEP       0x00003c64   Section        0  usbd_config_0.o(i.USBD_Endpoint0_Setup_ADC_ReqToEP)
    i.USBD_Endpoint0_Setup_ADC_ReqToIF       0x00003c68   Section        0  usbd_config_0.o(i.USBD_Endpoint0_Setup_ADC_ReqToIF)
    i.USBD_Endpoint0_Setup_CDC_ReqToIF       0x00003c6c   Section        0  usbd_lib_core_cdc.o(i.USBD_Endpoint0_Setup_CDC_ReqToIF)
    i.USBD_Endpoint0_Setup_HID_ReqToIF       0x00003f84   Section        0  usbd_config_0.o(i.USBD_Endpoint0_Setup_HID_ReqToIF)
    i.USBD_Endpoint0_Setup_MSC_ReqToIF       0x00003f88   Section        0  usbd_config_0.o(i.USBD_Endpoint0_Setup_MSC_ReqToIF)
    i.USBD_EndpointConfigure                 0x00003f8c   Section        0  usbd_lpc17xx.o(i.USBD_EndpointConfigure)
    USBD_EndpointConfigure                   0x00003f8d   Thumb Code   276  usbd_lpc17xx.o(i.USBD_EndpointConfigure)
    i.USBD_EndpointStall                     0x000040c0   Section        0  usbd_lpc17xx.o(i.USBD_EndpointStall)
    USBD_EndpointStall                       0x000040c1   Thumb Code   110  usbd_lpc17xx.o(i.USBD_EndpointStall)
    i.USBD_EndpointStart                     0x00004140   Section        0  usbd_config_0.o(i.USBD_EndpointStart)
    i.USBD_EndpointStop                      0x0000418c   Section        0  usbd_config_0.o(i.USBD_EndpointStop)
    i.USBD_EndpointTransfer                  0x000041d8   Section        0  usbd_lpc17xx.o(i.USBD_EndpointTransfer)
    USBD_EndpointTransfer                    0x000041d9   Thumb Code   176  usbd_lpc17xx.o(i.USBD_EndpointTransfer)
    i.USBD_EndpointTransferAbort             0x00004298   Section        0  usbd_lpc17xx.o(i.USBD_EndpointTransferAbort)
    USBD_EndpointTransferAbort               0x00004299   Thumb Code   128  usbd_lpc17xx.o(i.USBD_EndpointTransferAbort)
    i.USBD_EndpointTransferGetResult         0x00004324   Section        0  usbd_lpc17xx.o(i.USBD_EndpointTransferGetResult)
    USBD_EndpointTransferGetResult           0x00004325   Thumb Code    30  usbd_lpc17xx.o(i.USBD_EndpointTransferGetResult)
    i.USBD_EndpointUnconfigure               0x00004348   Section        0  usbd_lpc17xx.o(i.USBD_EndpointUnconfigure)
    USBD_EndpointUnconfigure                 0x00004349   Thumb Code   160  usbd_lpc17xx.o(i.USBD_EndpointUnconfigure)
    i.USBD_GetCapabilities                   0x000043f8   Section        0  usbd_lpc17xx.o(i.USBD_GetCapabilities)
    USBD_GetCapabilities                     0x000043f9   Thumb Code     6  usbd_lpc17xx.o(i.USBD_GetCapabilities)
    i.USBD_GetFrameNumber                    0x00004404   Section        0  usbd_lpc17xx.o(i.USBD_GetFrameNumber)
    USBD_GetFrameNumber                      0x00004405   Thumb Code    84  usbd_lpc17xx.o(i.USBD_GetFrameNumber)
    i.USBD_GetVersion                        0x00004468   Section        0  usbd_lpc17xx.o(i.USBD_GetVersion)
    USBD_GetVersion                          0x00004469   Thumb Code     6  usbd_lpc17xx.o(i.USBD_GetVersion)
    i.USBD_HW_ReadEP                         0x00004474   Section        0  usbd_lpc17xx.o(i.USBD_HW_ReadEP)
    USBD_HW_ReadEP                           0x00004475   Thumb Code   120  usbd_lpc17xx.o(i.USBD_HW_ReadEP)
    i.USBD_HW_WriteEP                        0x000044f8   Section        0  usbd_lpc17xx.o(i.USBD_HW_WriteEP)
    USBD_HW_WriteEP                          0x000044f9   Thumb Code   102  usbd_lpc17xx.o(i.USBD_HW_WriteEP)
    i.USBD_IRQ                               0x0000456c   Section        0  usbd_lpc17xx.o(i.USBD_IRQ)
    i.USBD_Initialize                        0x0000487c   Section        0  usbd_lpc17xx.o(i.USBD_Initialize)
    USBD_Initialize                          0x0000487d   Thumb Code    52  usbd_lpc17xx.o(i.USBD_Initialize)
    i.USBD_Initialize                        0x000048bc   Section        0  usbd_lib_core.o(i.USBD_Initialize)
    i.USBD_PowerControl                      0x000049d4   Section        0  usbd_lpc17xx.o(i.USBD_PowerControl)
    USBD_PowerControl                        0x000049d5   Thumb Code   270  usbd_lpc17xx.o(i.USBD_PowerControl)
    i.USBD_ReadSetupPacket                   0x00004af8   Section        0  usbd_lpc17xx.o(i.USBD_ReadSetupPacket)
    USBD_ReadSetupPacket                     0x00004af9   Thumb Code    88  usbd_lpc17xx.o(i.USBD_ReadSetupPacket)
    i.USBD_ReqGetDescriptor                  0x00004b58   Section        0  usbd_lib_core.o(i.USBD_ReqGetDescriptor)
    USBD_ReqGetDescriptor                    0x00004b59   Thumb Code   388  usbd_lib_core.o(i.USBD_ReqGetDescriptor)
    i.USBD_ReqGetMSDescriptor                0x00004cec   Section        0  usbd_lib_core.o(i.USBD_ReqGetMSDescriptor)
    USBD_ReqGetMSDescriptor                  0x00004ced   Thumb Code   162  usbd_lib_core.o(i.USBD_ReqGetMSDescriptor)
    i.USBD_ReqGetStatus                      0x00004da0   Section        0  usbd_lib_core.o(i.USBD_ReqGetStatus)
    USBD_ReqGetStatus                        0x00004da1   Thumb Code   170  usbd_lib_core.o(i.USBD_ReqGetStatus)
    i.USBD_ReqSetClrFeature                  0x00004e54   Section        0  usbd_lib_core.o(i.USBD_ReqSetClrFeature)
    USBD_ReqSetClrFeature                    0x00004e55   Thumb Code   256  usbd_lib_core.o(i.USBD_ReqSetClrFeature)
    i.USBD_ReqSetConfiguration               0x00004f64   Section        0  usbd_lib_core.o(i.USBD_ReqSetConfiguration)
    USBD_ReqSetConfiguration                 0x00004f65   Thumb Code   600  usbd_lib_core.o(i.USBD_ReqSetConfiguration)
    i.USBD_ReqSetInterface                   0x000051cc   Section        0  usbd_lib_core.o(i.USBD_ReqSetInterface)
    USBD_ReqSetInterface                     0x000051cd   Thumb Code   394  usbd_lib_core.o(i.USBD_ReqSetInterface)
    i.USBD_Reset                             0x00005364   Section        0  usbd_config_0.o(i.USBD_Reset)
    i.USBD_ResetCore                         0x00005390   Section        0  usbd_lib_core.o(i.USBD_ResetCore)
    USBD_ResetCore                           0x00005391   Thumb Code    34  usbd_lib_core.o(i.USBD_ResetCore)
    i.USBD_SemaphoreAcquire                  0x000053b8   Section        0  usbd_config_0.o(i.USBD_SemaphoreAcquire)
    i.USBD_SemaphoreCreate                   0x000053d0   Section        0  usbd_config_0.o(i.USBD_SemaphoreCreate)
    i.USBD_SemaphoreRelease                  0x000053fc   Section        0  usbd_config_0.o(i.USBD_SemaphoreRelease)
    i.USBD_SetConfiguration                  0x0000540e   Section        0  usbd_config_0.o(i.USBD_SetConfiguration)
    i.USBD_SignalDeviceEvent                 0x00005410   Section        0  usbd_lib_drv.o(i.USBD_SignalDeviceEvent)
    i.USBD_SignalEndpointEvent               0x00005420   Section        0  usbd_lib_drv.o(i.USBD_SignalEndpointEvent)
    i.USBD_StatusInStage                     0x00005468   Section        0  usbd_lib_core.o(i.USBD_StatusInStage)
    i.USBD_StatusInStageDone                 0x00005472   Section        0  usbd_lib_core.o(i.USBD_StatusInStageDone)
    i.USBD_StatusOutStage                    0x00005482   Section        0  usbd_lib_core.o(i.USBD_StatusOutStage)
    i.USBD_StatusOutStageDone                0x0000548c   Section        0  usbd_lib_core.o(i.USBD_StatusOutStageDone)
    i.USBD_ThreadCreate                      0x000054bc   Section        0  usbd_config_0.o(i.USBD_ThreadCreate)
    i.USBD_ThreadFlagsSet                    0x000054f0   Section        0  usbd_config_0.o(i.USBD_ThreadFlagsSet)
    i.USBD_ThreadFlagsWait                   0x000054fc   Section        0  usbd_config_0.o(i.USBD_ThreadFlagsWait)
    i.USBD_Uninitialize                      0x0000551c   Section        0  usbd_lpc17xx.o(i.USBD_Uninitialize)
    USBD_Uninitialize                        0x0000551d   Thumb Code    28  usbd_lpc17xx.o(i.USBD_Uninitialize)
    i.USB_IRQHandler                         0x00005540   Section        0  otg_lpc17xx.o(i.USB_IRQHandler)
    i.USB_PinsConfigure                      0x00005544   Section        0  otg_lpc17xx.o(i.USB_PinsConfigure)
    i.USB_PinsUnconfigure                    0x000055dc   Section        0  otg_lpc17xx.o(i.USB_PinsUnconfigure)
    i.__NVIC_ClearPendingIRQ                 0x00005670   Section        0  uart_lpc17xx.o(i.__NVIC_ClearPendingIRQ)
    __NVIC_ClearPendingIRQ                   0x00005671   Thumb Code    26  uart_lpc17xx.o(i.__NVIC_ClearPendingIRQ)
    i.__NVIC_ClearPendingIRQ                 0x0000568a   Section        0  gpdma_lpc17xx.o(i.__NVIC_ClearPendingIRQ)
    __NVIC_ClearPendingIRQ                   0x0000568b   Thumb Code    26  gpdma_lpc17xx.o(i.__NVIC_ClearPendingIRQ)
    i.__NVIC_DisableIRQ                      0x000056a4   Section        0  usbd_lpc17xx.o(i.__NVIC_DisableIRQ)
    __NVIC_DisableIRQ                        0x000056a5   Thumb Code    34  usbd_lpc17xx.o(i.__NVIC_DisableIRQ)
    i.__NVIC_EnableIRQ                       0x000056c6   Section        0  virtualcom.o(i.__NVIC_EnableIRQ)
    __NVIC_EnableIRQ                         0x000056c7   Thumb Code    26  virtualcom.o(i.__NVIC_EnableIRQ)
    i.__NVIC_EnableIRQ                       0x000056e0   Section        0  usbd_lpc17xx.o(i.__NVIC_EnableIRQ)
    __NVIC_EnableIRQ                         0x000056e1   Thumb Code    26  usbd_lpc17xx.o(i.__NVIC_EnableIRQ)
    i._init_box                              0x000056fa   Section        0  rt_membox.o(i._init_box)
    i._mutex_acquire                         0x00005740   Section        0  rtx_conf_cm.o(i._mutex_acquire)
    __tagsym$$used                           0x00005741   Number         0  rtx_conf_cm.o(i._mutex_acquire)
    i._mutex_release                         0x00005760   Section        0  rtx_conf_cm.o(i._mutex_release)
    __tagsym$$used                           0x00005761   Number         0  rtx_conf_cm.o(i._mutex_release)
    i.check_and_set_var                      0x0000577c   Section        0  usbd_lpc17xx.o(i.check_and_set_var)
    check_and_set_var                        0x0000577d   Thumb Code    30  usbd_lpc17xx.o(i.check_and_set_var)
    i.dbg_init                               0x0000579c   Section        0  hal_cm.o(i.dbg_init)
    i.dbg_task_notify                        0x000057cc   Section        0  hal_cm.o(i.dbg_task_notify)
    i.dbg_task_switch                        0x000057ec   Section        0  hal_cm.o(i.dbg_task_switch)
    i.initADC                                0x000057fc   Section        0  virtualcom.o(i.initADC)
    i.initPWM                                0x0000584c   Section        0  virtualcom.o(i.initPWM)
    i.initTIM0                               0x00005884   Section        0  virtualcom.o(i.initTIM0)
    i.isrMessageGet                          0x000058a0   Section        0  rt_cmsis.o(i.isrMessageGet)
    i.isrMessagePut                          0x000058ca   Section        0  rt_cmsis.o(i.isrMessagePut)
    i.isrSemaphoreRelease                    0x000058f6   Section        0  rt_cmsis.o(i.isrSemaphoreRelease)
    i.isrSignalSet                           0x0000591e   Section        0  rt_cmsis.o(i.isrSignalSet)
    i.isr_evt_set                            0x00005944   Section        0  rt_event.o(i.isr_evt_set)
    i.isr_mbx_receive                        0x0000596c   Section        0  rt_mailbox.o(i.isr_mbx_receive)
    i.isr_mbx_send                           0x000059c2   Section        0  rt_mailbox.o(i.isr_mbx_send)
    i.isr_sem_send                           0x000059d0   Section        0  rt_semaphore.o(i.isr_sem_send)
    i.main                                   0x000059e0   Section        0  virtualcom.o(i.main)
    i.osDelay                                0x00005a2c   Section        0  rt_cmsis.o(i.osDelay)
    i.osKernelInitialize                     0x00005a44   Section        0  rt_cmsis.o(i.osKernelInitialize)
    i.osKernelStart                          0x00005a68   Section        0  rt_cmsis.o(i.osKernelStart)
    i.osMessageGet                           0x00005ad4   Section        0  rt_cmsis.o(i.osMessageGet)
    i.osSemaphoreCreate                      0x00005aec   Section        0  rt_cmsis.o(i.osSemaphoreCreate)
    i.osSemaphoreRelease                     0x00005b18   Section        0  rt_cmsis.o(i.osSemaphoreRelease)
    i.osSemaphoreWait                        0x00005b30   Section        0  rt_cmsis.o(i.osSemaphoreWait)
    i.osSignalSet                            0x00005b48   Section        0  rt_cmsis.o(i.osSignalSet)
    i.osSignalWait                           0x00005b60   Section        0  rt_cmsis.o(i.osSignalWait)
    i.osThreadCreate                         0x00005b78   Section        0  rt_cmsis.o(i.osThreadCreate)
    i.osThreadExit                           0x00005ba4   Section        0  rt_cmsis.o(i.osThreadExit)
    i.osTimerCall                            0x00005bbc   Section        0  rt_cmsis.o(i.osTimerCall)
    i.osTimerThread                          0x00005bc8   Section        0  rt_cmsis.o(i.osTimerThread)
    i.os_error                               0x00005bf4   Section        0  rtx_conf_cm.o(i.os_error)
    i.os_idle_demon                          0x00005bf6   Section        0  rtx_conf_cm.o(i.os_idle_demon)
    i.os_tick_init                           0x00005bf8   Section        0  rt_system.o(i.os_tick_init)
    i.os_tick_irqack                         0x00005c20   Section        0  rt_system.o(i.os_tick_irqack)
    i.rt_alloc_box                           0x00005c22   Section        0  rt_membox.o(i.rt_alloc_box)
    i.rt_alloc_mem                           0x00005c3c   Section        0  rt_memory.o(i.rt_alloc_mem)
    i.rt_block                               0x00005c7c   Section        0  rt_task.o(i.rt_block)
    i.rt_chk_robin                           0x00005cb4   Section        0  rt_robin.o(i.rt_chk_robin)
    i.rt_dec_dly                             0x00005cfc   Section        0  rt_list.o(i.rt_dec_dly)
    i.rt_dispatch                            0x00005d6c   Section        0  rt_task.o(i.rt_dispatch)
    i.rt_dly_wait                            0x00005db0   Section        0  rt_time.o(i.rt_dly_wait)
    i.rt_evt_psh                             0x00005db8   Section        0  rt_event.o(i.rt_evt_psh)
    i.rt_evt_set                             0x00005e08   Section        0  rt_event.o(i.rt_evt_set)
    i.rt_evt_wait                            0x00005e64   Section        0  rt_event.o(i.rt_evt_wait)
    i.rt_free_box                            0x00005ea0   Section        0  rt_membox.o(i.rt_free_box)
    i.rt_free_mem                            0x00005ecc   Section        0  rt_memory.o(i.rt_free_mem)
    i.rt_get_first                           0x00005ef4   Section        0  rt_list.o(i.rt_get_first)
    i.rt_id2obj                              0x00005f1c   Section        0  rt_cmsis.o(i.rt_id2obj)
    rt_id2obj                                0x00005f1d   Thumb Code     8  rt_cmsis.o(i.rt_id2obj)
    i.rt_init_context                        0x00005f24   Section        0  rt_task.o(i.rt_init_context)
    rt_init_context                          0x00005f25   Thumb Code    66  rt_task.o(i.rt_init_context)
    i.rt_init_mem                            0x00005f6c   Section        0  rt_memory.o(i.rt_init_mem)
    i.rt_init_robin                          0x00005f88   Section        0  rt_robin.o(i.rt_init_robin)
    i.rt_init_stack                          0x00005fa0   Section        0  hal_cm.o(i.rt_init_stack)
    i.rt_mbx_check                           0x00006020   Section        0  rt_mailbox.o(i.rt_mbx_check)
    i.rt_mbx_init                            0x00006028   Section        0  rt_mailbox.o(i.rt_mbx_init)
    i.rt_mbx_psh                             0x00006044   Section        0  rt_mailbox.o(i.rt_mbx_psh)
    i.rt_mbx_wait                            0x00006134   Section        0  rt_mailbox.o(i.rt_mbx_wait)
    i.rt_ms2tick                             0x000061e8   Section        0  rt_cmsis.o(i.rt_ms2tick)
    rt_ms2tick                               0x000061e9   Thumb Code    58  rt_cmsis.o(i.rt_ms2tick)
    i.rt_mut_release                         0x0000622c   Section        0  rt_mutex.o(i.rt_mut_release)
    i.rt_mut_wait                            0x00006304   Section        0  rt_mutex.o(i.rt_mut_wait)
    i.rt_pop_req                             0x0000637c   Section        0  rt_system.o(i.rt_pop_req)
    i.rt_psh_req                             0x000063f8   Section        0  rt_system.o(i.rt_psh_req)
    i.rt_psq_enq                             0x00006418   Section        0  rt_list.o(i.rt_psq_enq)
    i.rt_put_dly                             0x00006474   Section        0  rt_list.o(i.rt_put_dly)
    i.rt_put_prio                            0x000064bc   Section        0  rt_list.o(i.rt_put_prio)
    i.rt_put_rdy_first                       0x000064f4   Section        0  rt_list.o(i.rt_put_rdy_first)
    i.rt_resort_prio                         0x00006508   Section        0  rt_list.o(i.rt_resort_prio)
    i.rt_ret_val                             0x0000653c   Section        0  hal_cm.o(i.rt_ret_val)
    i.rt_ret_val2                            0x00006542   Section        0  hal_cm.o(i.rt_ret_val2)
    i.rt_rmv_dly                             0x0000654a   Section        0  rt_list.o(i.rt_rmv_dly)
    i.rt_rmv_list                            0x00006574   Section        0  rt_list.o(i.rt_rmv_list)
    i.rt_sem_init                            0x000065a4   Section        0  rt_semaphore.o(i.rt_sem_init)
    i.rt_sem_psh                             0x000065b0   Section        0  rt_semaphore.o(i.rt_sem_psh)
    i.rt_sem_send                            0x000065e4   Section        0  rt_semaphore.o(i.rt_sem_send)
    i.rt_sem_wait                            0x00006610   Section        0  rt_semaphore.o(i.rt_sem_wait)
    i.rt_stk_check                           0x00006650   Section        0  rt_system.o(i.rt_stk_check)
    i.rt_switch_req                          0x00006674   Section        0  rt_task.o(i.rt_switch_req)
    i.rt_sys_init                            0x0000669c   Section        0  rt_task.o(i.rt_sys_init)
    i.rt_sys_start                           0x00006768   Section        0  rt_task.o(i.rt_sys_start)
    i.rt_systick                             0x000067e0   Section        0  rt_system.o(i.rt_systick)
    i.rt_tid2ptcb                            0x00006820   Section        0  rt_cmsis.o(i.rt_tid2ptcb)
    rt_tid2ptcb                              0x00006821   Thumb Code    18  rt_cmsis.o(i.rt_tid2ptcb)
    i.rt_timer_insert                        0x00006834   Section        0  rt_cmsis.o(i.rt_timer_insert)
    rt_timer_insert                          0x00006835   Thumb Code    48  rt_cmsis.o(i.rt_timer_insert)
    i.rt_tsk_create                          0x00006868   Section        0  rt_task.o(i.rt_tsk_create)
    i.rt_tsk_delete                          0x000068f0   Section        0  rt_task.o(i.rt_tsk_delete)
    i.rt_tsk_prio                            0x00006a6c   Section        0  rt_task.o(i.rt_tsk_prio)
    i.rt_tsk_self                            0x00006ae8   Section        0  rt_task.o(i.rt_tsk_self)
    i.send0                                  0x00006af8   Section        0  virtualcom.o(i.send0)
    i.svcDelay                               0x00006b78   Section        0  rt_cmsis.o(i.svcDelay)
    i.svcKernelInitialize                    0x00006b8c   Section        0  rt_cmsis.o(i.svcKernelInitialize)
    i.svcKernelStart                         0x00006bfc   Section        0  rt_cmsis.o(i.svcKernelStart)
    i.svcMessageCreate                       0x00006c44   Section        0  rt_cmsis.o(i.svcMessageCreate)
    i.svcMessageGet                          0x00006c68   Section        0  rt_cmsis.o(i.svcMessageGet)
    i.svcSemaphoreCreate                     0x00006ca2   Section        0  rt_cmsis.o(i.svcSemaphoreCreate)
    i.svcSemaphoreRelease                    0x00006cc6   Section        0  rt_cmsis.o(i.svcSemaphoreRelease)
    i.svcSemaphoreWait                       0x00006cee   Section        0  rt_cmsis.o(i.svcSemaphoreWait)
    i.svcSignalSet                           0x00006d20   Section        0  rt_cmsis.o(i.svcSignalSet)
    i.svcSignalWait                          0x00006d44   Section        0  rt_cmsis.o(i.svcSignalWait)
    i.svcThreadCreate                        0x00006d98   Section        0  rt_cmsis.o(i.svcThreadCreate)
    i.svcThreadGetId                         0x00006e04   Section        0  rt_cmsis.o(i.svcThreadGetId)
    i.svcThreadTerminate                     0x00006e20   Section        0  rt_cmsis.o(i.svcThreadTerminate)
    i.svcTimerCall                           0x00006e58   Section        0  rt_cmsis.o(i.svcTimerCall)
    i.sysTimerTick                           0x00006e70   Section        0  rt_cmsis.o(i.sysTimerTick)
    .constdata                               0x00006ecc   Section       16  virtualcom.o(.constdata)
    .constdata                               0x00006edc   Section       16  usbd_user_cdc_acm_uart_0.o(.constdata)
    .constdata                               0x00006eec   Section        2  rtx_conf_cm.o(.constdata)
    .constdata                               0x00006ef0   Section        4  rtx_conf_cm.o(.constdata)
    .constdata                               0x00006ef4   Section        4  rtx_conf_cm.o(.constdata)
    .constdata                               0x00006ef8   Section        4  rtx_conf_cm.o(.constdata)
    .constdata                               0x00006efc   Section        1  rtx_conf_cm.o(.constdata)
    .constdata                               0x00006f00   Section       16  rtx_conf_cm.o(.constdata)
    __tagsym$$used                           0x00006f00   Number         0  rtx_conf_cm.o(.constdata)
    __tagsym$$used                           0x00006f04   Number         0  rtx_conf_cm.o(.constdata)
    __tagsym$$used                           0x00006f08   Number         0  rtx_conf_cm.o(.constdata)
    __tagsym$$used                           0x00006f0c   Number         0  rtx_conf_cm.o(.constdata)
    .constdata                               0x00006f10   Section        2  rtx_conf_cm.o(.constdata)
    .constdata                               0x00006f14   Section        4  rtx_conf_cm.o(.constdata)
    .constdata                               0x00006f18   Section        4  rtx_conf_cm.o(.constdata)
    .constdata                               0x00006f1c   Section        1  rtx_conf_cm.o(.constdata)
    .constdata                               0x00006f20   Section       16  rtx_conf_cm.o(.constdata)
    .constdata                               0x00006f30   Section        8  rtx_conf_cm.o(.constdata)
    .constdata                               0x00006f38   Section        2  rtx_conf_cm.o(.constdata)
    .constdata                               0x00006f3c   Section       16  rtx_conf_cm.o(.constdata)
    .constdata                               0x00006f4c   Section       80  ssp_lpc17xx.o(.constdata)
    DriverVersion                            0x00006f4c   Data           4  ssp_lpc17xx.o(.constdata)
    DriverCapabilities                       0x00006f50   Data           4  ssp_lpc17xx.o(.constdata)
    SSP1_Resources                           0x00006f54   Data          72  ssp_lpc17xx.o(.constdata)
    .constdata                               0x00006f9c   Section      392  uart_lpc17xx.o(.constdata)
    usart_driver_version                     0x00006f9c   Data           4  uart_lpc17xx.o(.constdata)
    fract_div_lookup_table                   0x00006fa0   Data         288  uart_lpc17xx.o(.constdata)
    USART1_Resources                         0x000070c0   Data         100  uart_lpc17xx.o(.constdata)
    .constdata                               0x00007124   Section        8  uart_lpc17xx.o(.constdata)
    USART1_DMA_Tx                            0x00007124   Data           8  uart_lpc17xx.o(.constdata)
    .constdata                               0x0000712c   Section        8  uart_lpc17xx.o(.constdata)
    USART1_DMA_Rx                            0x0000712c   Data           8  uart_lpc17xx.o(.constdata)
    .constdata                               0x00007134   Section       56  uart_lpc17xx.o(.constdata)
    .constdata                               0x0000716c   Section        8  usbd_lpc17xx.o(.constdata)
    usbd_driver_version                      0x0000716c   Data           4  usbd_lpc17xx.o(.constdata)
    usbd_driver_capabilities                 0x00007170   Data           4  usbd_lpc17xx.o(.constdata)
    .constdata                               0x00007174   Section       72  usbd_lpc17xx.o(.constdata)
    .constdata                               0x000071bc   Section       28  usbd_config_0.o(.constdata)
    .constdata                               0x000071d8   Section       16  usbd_config_0.o(.constdata)
    .constdata                               0x000071e8   Section        1  usbd_config_0.o(.constdata)
    .constdata                               0x000071ec   Section        4  usbd_config_0.o(.constdata)
    .constdata                               0x000071f0   Section        1  usbd_config_0.o(.constdata)
    .constdata                               0x000071f4   Section       72  usbd_config_0.o(.constdata)
    .constdata                               0x0000723c   Section       44  usbd_config_0.o(.constdata)
    usbd_core_thread_def_ptr                 0x00007240   Data           4  usbd_config_0.o(.constdata)
    usbd_cdc_int_thread_def_ptr              0x00007244   Data           4  usbd_config_0.o(.constdata)
    usbd_cdc_bulk_thread_def_ptr             0x00007248   Data           4  usbd_config_0.o(.constdata)
    usbd_driver_semaphore_def_ptr            0x0000724c   Data           4  usbd_config_0.o(.constdata)
    usbd_driver_ep_semaphore_def_ptr         0x00007250   Data          24  usbd_config_0.o(.constdata)
    .constdata                               0x00007268   Section       16  usbd_config_0.o(.constdata)
    .constdata                               0x00007278   Section       16  usbd_config_0.o(.constdata)
    .constdata                               0x00007288   Section        4  usbd_config_0.o(.constdata)
    .constdata                               0x0000728c   Section        4  usbd_config_0.o(.constdata)
    .constdata                               0x00007290   Section        4  usbd_config_0.o(.constdata)
    .constdata                               0x00007294   Section        4  usbd_config_0.o(.constdata)
    .constdata                               0x00007298   Section        4  usbd_config_0.o(.constdata)
    .constdata                               0x0000729c   Section        4  usbd_config_0.o(.constdata)
    .constdata                               0x000072a0   Section        4  usbd_config_0.o(.constdata)
    .constdata                               0x000072a4   Section        1  usbd_config_0.o(.constdata)
    .constdata                               0x000072a8   Section        4  usbd_config_0.o(.constdata)
    .constdata                               0x000072ac   Section        4  usbd_config_0.o(.constdata)
    .constdata                               0x000072b0   Section        4  usbd_config_0.o(.constdata)
    .constdata                               0x000072b4   Section        4  usbd_config_0.o(.constdata)
    .constdata                               0x000072b8   Section        4  usbd_config_0.o(.constdata)
    .constdata                               0x000072bc   Section        4  usbd_config_0.o(.constdata)
    .constdata                               0x000072c0   Section        4  usbd_config_0.o(.constdata)
    .constdata                               0x000072c4   Section        4  usbd_config_0.o(.constdata)
    .constdata                               0x000072c8   Section        4  usbd_config_0.o(.constdata)
    .constdata                               0x000072cc   Section        4  usbd_config_0.o(.constdata)
    .constdata                               0x000072d0   Section        4  usbd_config_0.o(.constdata)
    .constdata                               0x000072d4   Section        4  usbd_config_0.o(.constdata)
    .constdata                               0x000072d8   Section        4  usbd_config_0.o(.constdata)
    .constdata                               0x000072dc   Section        4  usbd_config_0.o(.constdata)
    .constdata                               0x000072e0   Section        4  usbd_config_0.o(.constdata)
    .constdata                               0x000072e4   Section        4  usbd_config_0.o(.constdata)
    .constdata                               0x000072e8   Section        4  usbd_config_0.o(.constdata)
    .constdata                               0x000072ec   Section        4  usbd_config_0.o(.constdata)
    .constdata                               0x000072f0   Section        4  usbd_config_0.o(.constdata)
    .constdata                               0x000072f4   Section        4  usbd_config_0.o(.constdata)
    .constdata                               0x000072f8   Section        4  usbd_config_0.o(.constdata)
    .constdata                               0x000072fc   Section        4  usbd_config_0.o(.constdata)
    .constdata                               0x00007300   Section        4  usbd_config_0.o(.constdata)
    .constdata                               0x00007304   Section        4  usbd_config_0.o(.constdata)
    .constdata                               0x00007308   Section        4  usbd_config_0.o(.constdata)
    .constdata                               0x0000730c   Section        4  usbd_config_0.o(.constdata)
    .constdata                               0x00007310   Section        4  usbd_config_0.o(.constdata)
    .constdata                               0x00007314   Section        4  usbd_config_0.o(.constdata)
    .constdata                               0x00007318   Section        4  usbd_config_0.o(.constdata)
    .constdata                               0x0000731c   Section        4  usbd_config_0.o(.constdata)
    .constdata                               0x00007320   Section        4  usbd_config_0.o(.constdata)
    .constdata                               0x00007324   Section        4  usbd_config_0.o(.constdata)
    .constdata                               0x00007328   Section        4  usbd_config_0.o(.constdata)
    .constdata                               0x0000732c   Section        4  usbd_config_0.o(.constdata)
    .constdata                               0x00007330   Section        4  usbd_config_0.o(.constdata)
    .constdata                               0x00007334   Section        4  usbd_config_0.o(.constdata)
    .constdata                               0x00007338   Section        4  usbd_config_0.o(.constdata)
    .constdata                               0x0000733c   Section        4  usbd_config_0.o(.constdata)
    .constdata                               0x00007340   Section        4  usbd_config_0.o(.constdata)
    .constdata                               0x00007344   Section        4  usbd_config_0.o(.constdata)
    .constdata                               0x00007348   Section        4  usbd_config_0.o(.constdata)
    .constdata                               0x0000734c   Section        4  usbd_config_0.o(.constdata)
    .constdata                               0x00007350   Section        4  usbd_config_0.o(.constdata)
    .constdata                               0x00007354   Section        4  usbd_config_0.o(.constdata)
    .constdata                               0x00007358   Section        7  usbd_config_0.o(.constdata)
    .constdata                               0x00007360   Section       18  usbd_config_0.o(.constdata)
    .constdata                               0x00007374   Section       68  usbd_config_0.o(.constdata)
    .constdata                               0x000073b8   Section        1  usbd_config_0.o(.constdata)
    .constdata                               0x000073b9   Section        1  usbd_config_0.o(.constdata)
    .constdata                               0x000073ba   Section        1  usbd_config_0.o(.constdata)
    .constdata                               0x000073bb   Section        1  usbd_config_0.o(.constdata)
    .constdata                               0x000073bc   Section        1  usbd_config_0.o(.constdata)
    .constdata                               0x000073c0   Section      135  usbd_config_0.o(.constdata)
    __MW_USB_LIB_VERSION_6.12.4              0x00007468   Section        4  usb_lib_ver.o(__MW_USB_LIB_VERSION_6.12.4)
    __tagsym$$used                           0x00007468   Number         0  usb_lib_ver.o(__MW_USB_LIB_VERSION_6.12.4)
    .data                                    0x10000000   Section       24  virtualcom.o(.data)
    .data                                    0x10000018   Section       19  usbd_user_cdc_acm_uart_0.o(.data)
    uart_rx_cnt                              0x10000018   Data           4  usbd_user_cdc_acm_uart_0.o(.data)
    usb_tx_cnt                               0x1000001c   Data           4  usbd_user_cdc_acm_uart_0.o(.data)
    cdc_acm_bridge_tid                       0x10000020   Data           4  usbd_user_cdc_acm_uart_0.o(.data)
    cdc_acm_line_coding                      0x10000024   Data           7  usbd_user_cdc_acm_uart_0.o(.data)
    .data                                    0x1000002c   Section        4  rtx_conf_cm.o(.data)
    .data                                    0x10000030   Section        4  rtx_conf_cm.o(.data)
    .data                                    0x10000034   Section        4  rtx_conf_cm.o(.data)
    .data                                    0x10000038   Section        2  otg_lpc17xx.o(.data)
    .data                                    0x1000003a   Section        1  otg_lpc17xx.o(.data)
    .data                                    0x1000003b   Section        2  ssp_lpc17xx.o(.data)
    SSP1_pin_sck                             0x1000003b   Data           2  ssp_lpc17xx.o(.data)
    .data                                    0x1000003d   Section        2  ssp_lpc17xx.o(.data)
    SSP1_pin_miso                            0x1000003d   Data           2  ssp_lpc17xx.o(.data)
    .data                                    0x1000003f   Section        2  ssp_lpc17xx.o(.data)
    SSP1_pin_mosi                            0x1000003f   Data           2  ssp_lpc17xx.o(.data)
    .data                                    0x10000041   Section        2  ssp_lpc17xx.o(.data)
    SSP1_pin_ssel                            0x10000041   Data           2  ssp_lpc17xx.o(.data)
    .data                                    0x10000044   Section       28  usbd_lpc17xx.o(.data)
    usbd_int_active                          0x10000044   Data           1  usbd_lpc17xx.o(.data)
    setup_received                           0x10000045   Data           1  usbd_lpc17xx.o(.data)
    SignalDeviceEvent                        0x10000048   Data           4  usbd_lpc17xx.o(.data)
    SignalEndpointEvent                      0x1000004c   Data           4  usbd_lpc17xx.o(.data)
    usbd_state                               0x10000050   Data           4  usbd_lpc17xx.o(.data)
    ep_iso_cfg_mask                          0x10000054   Data           4  usbd_lpc17xx.o(.data)
    ep_iso_act_mask                          0x10000058   Data           4  usbd_lpc17xx.o(.data)
    usbd_sie_busy                            0x1000005c   Data           4  usbd_lpc17xx.o(.data)
    .data                                    0x10000060   Section        8  gpdma_lpc17xx.o(.data)
    Channel_active                           0x10000060   Data           4  gpdma_lpc17xx.o(.data)
    Init_cnt                                 0x10000064   Data           4  gpdma_lpc17xx.o(.data)
    .data                                    0x10000068   Section        4  system_lpc17xx.o(.data)
    .data                                    0x1000006c   Section        8  usbd_config_0.o(.data)
    .data                                    0x10000074   Section        8  usbd_config_0.o(.data)
    .data                                    0x1000007c   Section        8  usbd_config_0.o(.data)
    .data                                    0x10000084   Section        8  usbd_config_0.o(.data)
    .data                                    0x1000008c   Section        8  usbd_config_0.o(.data)
    .data                                    0x10000094   Section        8  usbd_config_0.o(.data)
    .data                                    0x1000009c   Section        8  usbd_config_0.o(.data)
    .data                                    0x100000a4   Section       12  usbd_config_0.o(.data)
    .data                                    0x100000b0   Section       48  usbd_config_0.o(.data)
    .data                                    0x100000e0   Section        4  usbd_config_0.o(.data)
    .data                                    0x100000e4   Section        2  usbd_config_0.o(.data)
    .data                                    0x100000e8   Section        4  usbd_config_0.o(.data)
    .data                                    0x100000ec   Section        4  usbd_config_0.o(.data)
    .data                                    0x100000f0   Section        4  usbd_config_0.o(.data)
    .data                                    0x100000f4   Section        4  usbd_config_0.o(.data)
    .data                                    0x100000f8   Section        4  usbd_config_0.o(.data)
    .data                                    0x100000fc   Section        4  usbd_config_0.o(.data)
    .data                                    0x10000100   Section        8  rt_cmsis.o(.data)
    .data                                    0x10000108   Section        8  rt_task.o(.data)
    .data                                    0x10000110   Section       16  usbd_lib_core.o(.data)
    ptr_desc                                 0x10000110   Data           4  usbd_lib_core.o(.data)
    len                                      0x10000114   Data           4  usbd_lib_core.o(.data)
    ptr_desc                                 0x10000118   Data           4  usbd_lib_core.o(.data)
    len                                      0x1000011c   Data           4  usbd_lib_core.o(.data)
    .data                                    0x10000120   Section       23  usbd_lib_cdc.o(.data)
    ch                                       0x10000120   Data           1  usbd_lib_cdc.o(.data)
    ch_local                                 0x10000121   Data           1  usbd_lib_cdc.o(.data)
    line_coding                              0x10000122   Data           7  usbd_lib_cdc.o(.data)
    line_coding                              0x10000129   Data           7  usbd_lib_cdc.o(.data)
    line_coding                              0x10000130   Data           7  usbd_lib_cdc.o(.data)
    .data                                    0x10000138   Section        8  rt_system.o(.data)
    os_lock                                  0x10000138   Data           1  rt_system.o(.data)
    os_psh_flag                              0x10000139   Data           1  rt_system.o(.data)
    pend_flags                               0x1000013a   Data           1  rt_system.o(.data)
    .data                                    0x10000140   Section        4  rt_time.o(.data)
    .data                                    0x10000144   Section        8  rt_robin.o(.data)
    .data                                    0x1000014c   Section        1  hal_cm.o(.data)
    .bss                                     0x10000150   Section     1602  virtualcom.o(.bss)
    .bss                                     0x10000792   Section     1024  usbd_user_cdc_acm_uart_0.o(.bss)
    uart_rx_buf                              0x10000792   Data         512  usbd_user_cdc_acm_uart_0.o(.bss)
    uart_tx_buf                              0x10000992   Data         512  usbd_user_cdc_acm_uart_0.o(.bss)
    .bss                                     0x10000b94   Section       32  rtx_conf_cm.o(.bss)
    .bss                                     0x10000bb4   Section      480  rtx_conf_cm.o(.bss)
    .bss                                     0x10000d98   Section     1296  rtx_conf_cm.o(.bss)
    .bss                                     0x100012a8   Section     2816  rtx_conf_cm.o(.bss)
    .bss                                     0x10001da8   Section      132  rtx_conf_cm.o(.bss)
    .bss                                     0x10001e2c   Section       36  rtx_conf_cm.o(.bss)
    .bss                                     0x10001e50   Section       12  ssp_lpc17xx.o(.bss)
    SSP1_Info                                0x10001e50   Data          12  ssp_lpc17xx.o(.bss)
    .bss                                     0x10001e5c   Section       28  ssp_lpc17xx.o(.bss)
    SSP1_Xfer                                0x10001e5c   Data          28  ssp_lpc17xx.o(.bss)
    .bss                                     0x10001e78   Section       52  uart_lpc17xx.o(.bss)
    USART1_Info                              0x10001e78   Data          52  uart_lpc17xx.o(.bss)
    .bss                                     0x10001eac   Section      640  usbd_lpc17xx.o(.bss)
    ep                                       0x10001eac   Data         640  usbd_lpc17xx.o(.bss)
    .bss                                     0x1000212c   Section      160  gpdma_lpc17xx.o(.bss)
    Channel_info                             0x1000212c   Data         160  gpdma_lpc17xx.o(.bss)
    .bss                                     0x100021cc   Section       64  usbd_config_0.o(.bss)
    .bss                                     0x1000220c   Section      176  usbd_config_0.o(.bss)
    .bss                                     0x100022bc   Section       24  usbd_config_0.o(.bss)
    .bss                                     0x100022d4   Section     1024  usbd_config_0.o(.bss)
    .bss                                     0x100026d4   Section     2048  usbd_config_0.o(.bss)
    .bss                                     0x10002ed4   Section       10  usbd_config_0.o(.bss)
    .bss                                     0x10002ee0   Section      512  usbd_config_0.o(.bss)
    .bss                                     0x100030e0   Section      512  usbd_config_0.o(.bss)
    .bss                                     0x100032e0   Section      132  usbd_config_0.o(.bss)
    .bss                                     0x10003364   Section       34  usbd_config_0.o(.bss)
    usbd0_ser_num_string_descriptor          0x10003364   Data          34  usbd_config_0.o(.bss)
    .bss                                     0x10003388   Section       52  rt_task.o(.bss)
    .bss                                     0x100033bc   Section       48  rt_list.o(.bss)
    .bss                                     0x100033ec   Section       96  libspace.o(.bss)
    HEAP                                     0x10003450   Section        0  startup_lpc17xx.o(HEAP)
    STACK                                    0x10003450   Section      512  startup_lpc17xx.o(STACK)
    Heap_Mem                                 0x10003450   Data           0  startup_lpc17xx.o(HEAP)
    Stack_Mem                                0x10003450   Data         512  startup_lpc17xx.o(STACK)
    __initial_sp                             0x10003650   Data           0  startup_lpc17xx.o(STACK)

    Global Symbols

    Symbol Name                              Value     Ov Type        Size  Object(Section)

    BuildAttributes$$THM_ISAv4$P$D$K$B$S$PE$A:L22UL41UL21$X:L11$S22US41US21$IEEE1$IW$~IW$USESV6$~STKCKD$USESV7$~SHL$OSPACE$ROPI$EBA8$UX$STANDARDLIB$REQ8$PRES8$EABIv2 0x00000000   Number         0  anon$$obj.o ABSOLUTE
    __ARM_use_no_argv                        0x00000000   Number         0  virtualcom.o ABSOLUTE
    __Vectors                                0x00000000   Data           4  startup_lpc17xx.o(RESET)
    __ARM_exceptions_init                     - Undefined Weak Reference
    __alloca_initialize                       - Undefined Weak Reference
    __arm_preinit_                            - Undefined Weak Reference
    __cpp_initialize__aeabi_                  - Undefined Weak Reference
    __cxa_finalize                            - Undefined Weak Reference
    __rt_locale                               - Undefined Weak Reference
    __sigvec_lookup                           - Undefined Weak Reference
    _atexit_init                              - Undefined Weak Reference
    _call_atexit_fns                          - Undefined Weak Reference
    _clock_init                               - Undefined Weak Reference
    _fp_trap_init                             - Undefined Weak Reference
    _fp_trap_shutdown                         - Undefined Weak Reference
    _get_lc_collate                           - Undefined Weak Reference
    _get_lc_ctype                             - Undefined Weak Reference
    _get_lc_monetary                          - Undefined Weak Reference
    _get_lc_numeric                           - Undefined Weak Reference
    _get_lc_time                              - Undefined Weak Reference
    _getenv_init                              - Undefined Weak Reference
    _handle_redirection                       - Undefined Weak Reference
    _init_alloc                               - Undefined Weak Reference
    _init_user_alloc                          - Undefined Weak Reference
    _initio                                   - Undefined Weak Reference
    _rand_init                                - Undefined Weak Reference
    _signal_finish                            - Undefined Weak Reference
    _signal_init                              - Undefined Weak Reference
    _terminate_alloc                          - Undefined Weak Reference
    _terminate_user_alloc                     - Undefined Weak Reference
    _terminateio                              - Undefined Weak Reference
    __main                                   0x000000cd   Thumb Code     8  __main.o(!!!main)
    __scatterload                            0x000000d5   Thumb Code     0  __scatter.o(!!!scatter)
    __scatterload_rt2                        0x000000d5   Thumb Code    44  __scatter.o(!!!scatter)
    __scatterload_rt2_thumb_only             0x000000d5   Thumb Code     0  __scatter.o(!!!scatter)
    __scatterload_null                       0x000000e3   Thumb Code     0  __scatter.o(!!!scatter)
    __decompress                             0x00000109   Thumb Code    58  __dczerorl.o(!!dczerorl)
    __decompress0                            0x00000109   Thumb Code     0  __dczerorl.o(!!dczerorl)
    __scatterload_zeroinit                   0x00000145   Thumb Code    28  __scatter_zi.o(!!handler_zi)
    __rt_lib_init                            0x00000161   Thumb Code     0  libinit.o(.ARM.Collect$$libinit$$00000000)
    __rt_lib_init_alloca_1                   0x00000163   Thumb Code     0  libinit2.o(.ARM.Collect$$libinit$$0000002E)
    __rt_lib_init_argv_1                     0x00000163   Thumb Code     0  libinit2.o(.ARM.Collect$$libinit$$0000002C)
    __rt_lib_init_atexit_1                   0x00000163   Thumb Code     0  libinit2.o(.ARM.Collect$$libinit$$0000001B)
    __rt_lib_init_clock_1                    0x00000163   Thumb Code     0  libinit2.o(.ARM.Collect$$libinit$$00000021)
    __rt_lib_init_cpp_1                      0x00000163   Thumb Code     0  libinit2.o(.ARM.Collect$$libinit$$00000032)
    __rt_lib_init_exceptions_1               0x00000163   Thumb Code     0  libinit2.o(.ARM.Collect$$libinit$$00000030)
    __rt_lib_init_fp_1                       0x00000163   Thumb Code     0  libinit2.o(.ARM.Collect$$libinit$$00000002)
    __rt_lib_init_fp_trap_1                  0x00000163   Thumb Code     0  libinit2.o(.ARM.Collect$$libinit$$0000001F)
    __rt_lib_init_getenv_1                   0x00000163   Thumb Code     0  libinit2.o(.ARM.Collect$$libinit$$00000023)
    __rt_lib_init_heap_1                     0x00000163   Thumb Code     0  libinit2.o(.ARM.Collect$$libinit$$0000000A)
    __rt_lib_init_lc_collate_1               0x00000163   Thumb Code     0  libinit2.o(.ARM.Collect$$libinit$$00000011)
    __rt_lib_init_lc_ctype_1                 0x00000163   Thumb Code     0  libinit2.o(.ARM.Collect$$libinit$$00000013)
    __rt_lib_init_lc_monetary_1              0x00000163   Thumb Code     0  libinit2.o(.ARM.Collect$$libinit$$00000015)
    __rt_lib_init_lc_numeric_1               0x00000163   Thumb Code     0  libinit2.o(.ARM.Collect$$libinit$$00000017)
    __rt_lib_init_lc_time_1                  0x00000163   Thumb Code     0  libinit2.o(.ARM.Collect$$libinit$$00000019)
    __rt_lib_init_preinit_1                  0x00000163   Thumb Code     0  libinit2.o(.ARM.Collect$$libinit$$00000004)
    __rt_lib_init_rand_1                     0x00000163   Thumb Code     0  libinit2.o(.ARM.Collect$$libinit$$0000000E)
    __rt_lib_init_return                     0x00000163   Thumb Code     0  libinit2.o(.ARM.Collect$$libinit$$00000033)
    __rt_lib_init_signal_1                   0x00000163   Thumb Code     0  libinit2.o(.ARM.Collect$$libinit$$0000001D)
    __rt_lib_init_stdio_1                    0x00000163   Thumb Code     0  libinit2.o(.ARM.Collect$$libinit$$00000025)
    __rt_lib_init_user_alloc_1               0x00000163   Thumb Code     0  libinit2.o(.ARM.Collect$$libinit$$0000000C)
    __rt_lib_shutdown                        0x00000165   Thumb Code     0  libshutdown.o(.ARM.Collect$$libshutdown$$00000000)
    __rt_lib_shutdown_cpp_1                  0x00000167   Thumb Code     0  libshutdown2.o(.ARM.Collect$$libshutdown$$00000002)
    __rt_lib_shutdown_fp_trap_1              0x00000167   Thumb Code     0  libshutdown2.o(.ARM.Collect$$libshutdown$$00000007)
    __rt_lib_shutdown_heap_1                 0x00000167   Thumb Code     0  libshutdown2.o(.ARM.Collect$$libshutdown$$0000000F)
    __rt_lib_shutdown_return                 0x00000167   Thumb Code     0  libshutdown2.o(.ARM.Collect$$libshutdown$$00000010)
    __rt_lib_shutdown_signal_1               0x00000167   Thumb Code     0  libshutdown2.o(.ARM.Collect$$libshutdown$$0000000A)
    __rt_lib_shutdown_stdio_1                0x00000167   Thumb Code     0  libshutdown2.o(.ARM.Collect$$libshutdown$$00000004)
    __rt_lib_shutdown_user_alloc_1           0x00000167   Thumb Code     0  libshutdown2.o(.ARM.Collect$$libshutdown$$0000000C)
    __rt_entry                               0x00000169   Thumb Code     0  __rtentry.o(.ARM.Collect$$rtentry$$00000000)
    __rt_entry_presh_1                       0x00000169   Thumb Code     0  __rtentry2.o(.ARM.Collect$$rtentry$$00000002)
    __rt_entry_sh                            0x00000169   Thumb Code     0  __rtentry4.o(.ARM.Collect$$rtentry$$00000004)
    __rt_entry_li                            0x0000016f   Thumb Code     0  __rtentry2.o(.ARM.Collect$$rtentry$$0000000A)
    __rt_entry_postsh_1                      0x0000016f   Thumb Code     0  __rtentry2.o(.ARM.Collect$$rtentry$$00000009)
    __rt_entry_postli_1                      0x00000173   Thumb Code     0  __rtentry2.o(.ARM.Collect$$rtentry$$0000000B)
    __rt_entry_main                          0x0000017b   Thumb Code     0  __rtentry2.o(.ARM.Collect$$rtentry$$0000000D)
    __rt_exit                                0x00000183   Thumb Code     0  rtexit.o(.ARM.Collect$$rtexit$$00000000)
    __rt_exit_ls                             0x00000185   Thumb Code     0  rtexit2.o(.ARM.Collect$$rtexit$$00000003)
    __rt_exit_prels_1                        0x00000185   Thumb Code     0  rtexit2.o(.ARM.Collect$$rtexit$$00000002)
    __rt_exit_exit                           0x00000189   Thumb Code     0  rtexit2.o(.ARM.Collect$$rtexit$$00000004)
    _platform_post_lib_init                  0x00000191   Thumb Code    24  rtx_conf_cm.o(.emb_text)
    rt_set_PSP                               0x000001ad   Thumb Code     6  hal_cm3.o(.emb_text)
    rt_get_PSP                               0x000001b3   Thumb Code     6  hal_cm3.o(.emb_text)
    os_set_env                               0x000001b9   Thumb Code    24  hal_cm3.o(.emb_text)
    _alloc_box                               0x000001d5   Thumb Code    28  hal_cm3.o(.emb_text)
    _free_box                                0x000001f5   Thumb Code    28  hal_cm3.o(.emb_text)
    SVC_Handler                              0x00000215   Thumb Code   108  hal_cm3.o(.emb_text)
    PendSV_Handler                           0x0000028d   Thumb Code    56  hal_cm3.o(.emb_text)
    SysTick_Handler                          0x000002c9   Thumb Code     8  hal_cm3.o(.emb_text)
    OS_Tick_Handler                          0x000002d1   Thumb Code    12  hal_cm3.o(.emb_text)
    __user_libspace                          0x000002dd   Thumb Code     8  libspace.o(.text)
    __user_perproc_libspace                  0x000002dd   Thumb Code     0  libspace.o(.text)
    exit                                     0x000002e5   Thumb Code    18  exit.o(.text)
    __use_two_region_memory                  0x000002f7   Thumb Code     2  heapauxi.o(.text)
    __rt_heap_escrow$2region                 0x000002f9   Thumb Code     2  heapauxi.o(.text)
    __rt_heap_expand$2region                 0x000002fb   Thumb Code     2  heapauxi.o(.text)
    Reset_Handler                            0x00000301   Thumb Code     8  startup_lpc17xx.o(.text)
    NMI_Handler                              0x00000309   Thumb Code     2  startup_lpc17xx.o(.text)
    HardFault_Handler                        0x0000030b   Thumb Code     2  startup_lpc17xx.o(.text)
    MemManage_Handler                        0x0000030d   Thumb Code     2  startup_lpc17xx.o(.text)
    BusFault_Handler                         0x0000030f   Thumb Code     2  startup_lpc17xx.o(.text)
    UsageFault_Handler                       0x00000311   Thumb Code     2  startup_lpc17xx.o(.text)
    DebugMon_Handler                         0x00000315   Thumb Code     2  startup_lpc17xx.o(.text)
    BOD_IRQHandler                           0x0000031b   Thumb Code     0  startup_lpc17xx.o(.text)
    CANActivity_IRQHandler                   0x0000031b   Thumb Code     0  startup_lpc17xx.o(.text)
    CAN_IRQHandler                           0x0000031b   Thumb Code     0  startup_lpc17xx.o(.text)
    EINT0_IRQHandler                         0x0000031b   Thumb Code     0  startup_lpc17xx.o(.text)
    EINT1_IRQHandler                         0x0000031b   Thumb Code     0  startup_lpc17xx.o(.text)
    EINT2_IRQHandler                         0x0000031b   Thumb Code     0  startup_lpc17xx.o(.text)
    EINT3_IRQHandler                         0x0000031b   Thumb Code     0  startup_lpc17xx.o(.text)
    ENET_IRQHandler                          0x0000031b   Thumb Code     0  startup_lpc17xx.o(.text)
    I2C0_IRQHandler                          0x0000031b   Thumb Code     0  startup_lpc17xx.o(.text)
    I2C1_IRQHandler                          0x0000031b   Thumb Code     0  startup_lpc17xx.o(.text)
    I2C2_IRQHandler                          0x0000031b   Thumb Code     0  startup_lpc17xx.o(.text)
    I2S_IRQHandler                           0x0000031b   Thumb Code     0  startup_lpc17xx.o(.text)
    MCPWM_IRQHandler                         0x0000031b   Thumb Code     0  startup_lpc17xx.o(.text)
    PLL0_IRQHandler                          0x0000031b   Thumb Code     0  startup_lpc17xx.o(.text)
    PLL1_IRQHandler                          0x0000031b   Thumb Code     0  startup_lpc17xx.o(.text)
    PWM1_IRQHandler                          0x0000031b   Thumb Code     0  startup_lpc17xx.o(.text)
    QEI_IRQHandler                           0x0000031b   Thumb Code     0  startup_lpc17xx.o(.text)
    RIT_IRQHandler                           0x0000031b   Thumb Code     0  startup_lpc17xx.o(.text)
    RTC_IRQHandler                           0x0000031b   Thumb Code     0  startup_lpc17xx.o(.text)
    SPI_IRQHandler                           0x0000031b   Thumb Code     0  startup_lpc17xx.o(.text)
    SSP0_IRQHandler                          0x0000031b   Thumb Code     0  startup_lpc17xx.o(.text)
    TIMER1_IRQHandler                        0x0000031b   Thumb Code     0  startup_lpc17xx.o(.text)
    TIMER2_IRQHandler                        0x0000031b   Thumb Code     0  startup_lpc17xx.o(.text)
    TIMER3_IRQHandler                        0x0000031b   Thumb Code     0  startup_lpc17xx.o(.text)
    UART0_IRQHandler                         0x0000031b   Thumb Code     0  startup_lpc17xx.o(.text)
    UART2_IRQHandler                         0x0000031b   Thumb Code     0  startup_lpc17xx.o(.text)
    UART3_IRQHandler                         0x0000031b   Thumb Code     0  startup_lpc17xx.o(.text)
    USBActivity_IRQHandler                   0x0000031b   Thumb Code     0  startup_lpc17xx.o(.text)
    WDT_IRQHandler                           0x0000031b   Thumb Code     0  startup_lpc17xx.o(.text)
    __user_initial_stackheap                 0x0000031d   Thumb Code     0  startup_lpc17xx.o(.text)
    __aeabi_uldivmod                         0x0000033d   Thumb Code     0  lludivv7m.o(.text)
    _ll_udiv                                 0x0000033d   Thumb Code   238  lludivv7m.o(.text)
    __aeabi_memcpy                           0x0000042b   Thumb Code     0  rt_memcpy_v6.o(.text)
    __rt_memcpy                              0x0000042b   Thumb Code   138  rt_memcpy_v6.o(.text)
    __RL_RTX_VER                             0x00000482   Number         0  rt_system.o ABSOLUTE
    _memcpy_lastbytes                        0x00000491   Thumb Code     0  rt_memcpy_v6.o(.text)
    __aeabi_memclr                           0x000004b5   Thumb Code     0  rt_memclr.o(.text)
    __rt_memclr                              0x000004b5   Thumb Code    68  rt_memclr.o(.text)
    _memset                                  0x000004b9   Thumb Code     0  rt_memclr.o(.text)
    __aeabi_memclr4                          0x000004f9   Thumb Code     0  rt_memclr_w.o(.text)
    __aeabi_memclr8                          0x000004f9   Thumb Code     0  rt_memclr_w.o(.text)
    __rt_memclr_w                            0x000004f9   Thumb Code    78  rt_memclr_w.o(.text)
    _memset_w                                0x000004fd   Thumb Code     0  rt_memclr_w.o(.text)
    __aeabi_memcpy4                          0x00000547   Thumb Code     0  rt_memcpy_w.o(.text)
    __aeabi_memcpy8                          0x00000547   Thumb Code     0  rt_memcpy_w.o(.text)
    __rt_memcpy_w                            0x00000547   Thumb Code   100  rt_memcpy_w.o(.text)
    _memcpy_lastbytes_aligned                0x0000058f   Thumb Code     0  rt_memcpy_w.o(.text)
    _sys_exit                                0x000005ad   Thumb Code     8  sys_exit.o(.text)
    __user_setup_stackheap                   0x000005b9   Thumb Code    74  sys_stackheap_outer.o(.text)
    __I$use$semihosting                      0x00000603   Thumb Code     0  use_no_semi.o(.text)
    __use_no_semihosting_swi                 0x00000603   Thumb Code     2  use_no_semi.o(.text)
    SVC_Count                                0x00000604   Data           4  svc_table.o(SVC_TABLE)
    __semihosting_library_function           0x00000605   Thumb Code     0  indicate_semi.o(.text)
    ADC_IRQHandler                           0x00000609   Thumb Code    56  virtualcom.o(i.ADC_IRQHandler)
    SVC_Table                                0x00000608   Data           0  svc_table.o(SVC_TABLE)
    CDC0_ACM_UART_to_USB_Thread              0x0000064d   Thumb Code    90  usbd_user_cdc_acm_uart_0.o(i.CDC0_ACM_UART_to_USB_Thread)
    CDC0_ACM_UART_to_USB_Threadm             0x000006b5   Thumb Code    28  virtualcom.o(i.CDC0_ACM_UART_to_USB_Threadm)
    DMA_IRQHandler                           0x000006f5   Thumb Code   220  gpdma_lpc17xx.o(i.DMA_IRQHandler)
    GPDMA_ChannelConfigure                   0x000007dd   Thumb Code   186  gpdma_lpc17xx.o(i.GPDMA_ChannelConfigure)
    GPDMA_ChannelDisable                     0x000008a5   Thumb Code    40  gpdma_lpc17xx.o(i.GPDMA_ChannelDisable)
    GPDMA_ChannelGetCount                    0x000008d1   Thumb Code    38  gpdma_lpc17xx.o(i.GPDMA_ChannelGetCount)
    GPDMA_Initialize                         0x00000901   Thumb Code    98  gpdma_lpc17xx.o(i.GPDMA_Initialize)
    GPDMA_PeripheralSelect                   0x00000975   Thumb Code    48  gpdma_lpc17xx.o(i.GPDMA_PeripheralSelect)
    GPDMA_Uninitialize                       0x000009a9   Thumb Code    64  gpdma_lpc17xx.o(i.GPDMA_Uninitialize)
    PIN_Configure                            0x00000a2d   Thumb Code   100  pin_lpc17xx.o(i.PIN_Configure)
    SSP1_GPDMA_Rx_SignalEvent                0x00000b29   Thumb Code     6  ssp_lpc17xx.o(i.SSP1_GPDMA_Rx_SignalEvent)
    SSP1_GPDMA_Tx_SignalEvent                0x00000b35   Thumb Code     6  ssp_lpc17xx.o(i.SSP1_GPDMA_Tx_SignalEvent)
    SSP1_IRQHandler                          0x00000b41   Thumb Code     6  ssp_lpc17xx.o(i.SSP1_IRQHandler)
    SSPx_GPDMA_Rx_SignalEvent                0x00000b4d   Thumb Code    30  ssp_lpc17xx.o(i.SSPx_GPDMA_Rx_SignalEvent)
    SSPx_GPDMA_Tx_SignalEvent                0x00000b6b   Thumb Code    12  ssp_lpc17xx.o(i.SSPx_GPDMA_Tx_SignalEvent)
    SystemInit                               0x00000c71   Thumb Code   200  system_lpc17xx.o(i.SystemInit)
    TIMER0_IRQHandler                        0x00000d45   Thumb Code    28  virtualcom.o(i.TIMER0_IRQHandler)
    UART1_IRQHandler                         0x00000d65   Thumb Code     6  uart_lpc17xx.o(i.UART1_IRQHandler)
    USART1_GPDMA_Rx_Event                    0x00000dcd   Thumb Code    96  uart_lpc17xx.o(i.USART1_GPDMA_Rx_Event)
    USART1_GPDMA_Tx_Event                    0x00000e31   Thumb Code    50  uart_lpc17xx.o(i.USART1_GPDMA_Tx_Event)
    USART_SetBaudrate                        0x00001c99   Thumb Code   204  uart_lpc17xx.o(i.USART_SetBaudrate)
    USBD0_Core_Thread                        0x00001ea1   Thumb Code     6  usbd_lib_core.o(i.USBD0_Core_Thread)
    USBD0_SignalDeviceEvent                  0x00001ea7   Thumb Code     8  usbd_config_0.o(i.USBD0_SignalDeviceEvent)
    USBD0_SignalEndpointEvent                0x00001eaf   Thumb Code    10  usbd_config_0.o(i.USBD0_SignalEndpointEvent)
    USBD_CDC0_ACM_DataReceived               0x00001eb9   Thumb Code    40  usbd_user_cdc_acm_uart_0.o(i.USBD_CDC0_ACM_DataReceived)
    USBD_CDC0_ACM_DataSent                   0x00001ee9   Thumb Code     2  usbd_config_0.o(i.USBD_CDC0_ACM_DataSent)
    USBD_CDC0_ACM_GetLineCoding              0x00001eed   Thumb Code    18  usbd_user_cdc_acm_uart_0.o(i.USBD_CDC0_ACM_GetLineCoding)
    USBD_CDC0_ACM_Initialize                 0x00001f05   Thumb Code    30  usbd_user_cdc_acm_uart_0.o(i.USBD_CDC0_ACM_Initialize)
    USBD_CDC0_ACM_Reset                      0x00001f35   Thumb Code    24  usbd_user_cdc_acm_uart_0.o(i.USBD_CDC0_ACM_Reset)
    USBD_CDC0_ACM_SetControlLineState        0x00001f51   Thumb Code     4  usbd_user_cdc_acm_uart_0.o(i.USBD_CDC0_ACM_SetControlLineState)
    USBD_CDC0_ACM_SetLineCoding              0x00001f55   Thumb Code   216  usbd_user_cdc_acm_uart_0.o(i.USBD_CDC0_ACM_SetLineCoding)
    USBD_CDC0_Bulk_Thread                    0x00002039   Thumb Code     6  usbd_lib_cdc.o(i.USBD_CDC0_Bulk_Thread)
    USBD_CDC0_Int_Thread                     0x0000203f   Thumb Code     6  usbd_lib_cdc.o(i.USBD_CDC0_Int_Thread)
    USBD_CDC0_NCM_GetCrcMode                 0x00002045   Thumb Code     4  usbd_config_0.o(i.USBD_CDC0_NCM_GetCrcMode)
    USBD_CDC0_NCM_GetEthernetPowerManagementPatternFilter 0x00002049   Thumb Code     4  usbd_config_0.o(i.USBD_CDC0_NCM_GetEthernetPowerManagementPatternFilter)
    USBD_CDC0_NCM_GetEthernetStatistic       0x0000204d   Thumb Code     4  usbd_config_0.o(i.USBD_CDC0_NCM_GetEthernetStatistic)
    USBD_CDC0_NCM_GetMaxDatagramSize         0x00002051   Thumb Code     4  usbd_config_0.o(i.USBD_CDC0_NCM_GetMaxDatagramSize)
    USBD_CDC0_NCM_GetNetAddress              0x00002055   Thumb Code     4  usbd_config_0.o(i.USBD_CDC0_NCM_GetNetAddress)
    USBD_CDC0_NCM_GetNtbFormat               0x00002059   Thumb Code     4  usbd_config_0.o(i.USBD_CDC0_NCM_GetNtbFormat)
    USBD_CDC0_NCM_GetNtbInputSize            0x0000205d   Thumb Code     4  usbd_config_0.o(i.USBD_CDC0_NCM_GetNtbInputSize)
    USBD_CDC0_NCM_GetNtbParameters           0x00002061   Thumb Code     4  usbd_config_0.o(i.USBD_CDC0_NCM_GetNtbParameters)
    USBD_CDC0_NCM_Initialize                 0x00002065   Thumb Code     2  usbd_config_0.o(i.USBD_CDC0_NCM_Initialize)
    USBD_CDC0_NCM_NTB_IN_Sent                0x00002067   Thumb Code     2  usbd_config_0.o(i.USBD_CDC0_NCM_NTB_IN_Sent)
    USBD_CDC0_NCM_NTB_OUT_Received           0x00002069   Thumb Code     2  usbd_config_0.o(i.USBD_CDC0_NCM_NTB_OUT_Received)
    USBD_CDC0_NCM_Reset                      0x0000206b   Thumb Code     2  usbd_config_0.o(i.USBD_CDC0_NCM_Reset)
    USBD_CDC0_NCM_SetCrcMode                 0x0000206d   Thumb Code     4  usbd_config_0.o(i.USBD_CDC0_NCM_SetCrcMode)
    USBD_CDC0_NCM_SetEthernetMulticastFilters 0x00002071   Thumb Code     4  usbd_config_0.o(i.USBD_CDC0_NCM_SetEthernetMulticastFilters)
    USBD_CDC0_NCM_SetEthernetPacketFilter    0x00002075   Thumb Code     4  usbd_config_0.o(i.USBD_CDC0_NCM_SetEthernetPacketFilter)
    USBD_CDC0_NCM_SetEthernetPowerManagementPatternFilter 0x00002079   Thumb Code     4  usbd_config_0.o(i.USBD_CDC0_NCM_SetEthernetPowerManagementPatternFilter)
    USBD_CDC0_NCM_SetMaxDatagramSize         0x0000207d   Thumb Code     4  usbd_config_0.o(i.USBD_CDC0_NCM_SetMaxDatagramSize)
    USBD_CDC0_NCM_SetNetAddress              0x00002081   Thumb Code     4  usbd_config_0.o(i.USBD_CDC0_NCM_SetNetAddress)
    USBD_CDC0_NCM_SetNtbFormat               0x00002085   Thumb Code     4  usbd_config_0.o(i.USBD_CDC0_NCM_SetNtbFormat)
    USBD_CDC0_NCM_SetNtbInputSize            0x00002089   Thumb Code     4  usbd_config_0.o(i.USBD_CDC0_NCM_SetNtbInputSize)
    USBD_CDC0_NCM_Start                      0x0000208d   Thumb Code     2  usbd_config_0.o(i.USBD_CDC0_NCM_Start)
    USBD_CDC0_NCM_Stop                       0x0000208f   Thumb Code     2  usbd_config_0.o(i.USBD_CDC0_NCM_Stop)
    USBD_CDC_ACM_CoreClearCommFeature        0x00002091   Thumb Code     4  usbd_lib_cdc.o(i.USBD_CDC_ACM_CoreClearCommFeature)
    USBD_CDC_ACM_CoreGetCommFeature          0x00002095   Thumb Code     4  usbd_lib_cdc.o(i.USBD_CDC_ACM_CoreGetCommFeature)
    USBD_CDC_ACM_CoreGetEncapsulatedResponse 0x00002099   Thumb Code     4  usbd_lib_cdc.o(i.USBD_CDC_ACM_CoreGetEncapsulatedResponse)
    USBD_CDC_ACM_CoreGetLineCoding           0x0000209d   Thumb Code    66  usbd_lib_cdc.o(i.USBD_CDC_ACM_CoreGetLineCoding)
    USBD_CDC_ACM_CoreSendBreak               0x000020f1   Thumb Code     4  usbd_lib_cdc.o(i.USBD_CDC_ACM_CoreSendBreak)
    USBD_CDC_ACM_CoreSendEncapsulatedCommand 0x000020f5   Thumb Code     4  usbd_lib_cdc.o(i.USBD_CDC_ACM_CoreSendEncapsulatedCommand)
    USBD_CDC_ACM_CoreSetCommFeature          0x000020f9   Thumb Code     4  usbd_lib_cdc.o(i.USBD_CDC_ACM_CoreSetCommFeature)
    USBD_CDC_ACM_CoreSetControlLineState     0x000020fd   Thumb Code    44  usbd_lib_cdc.o(i.USBD_CDC_ACM_CoreSetControlLineState)
    USBD_CDC_ACM_CoreSetLineCoding           0x00002131   Thumb Code    62  usbd_lib_cdc.o(i.USBD_CDC_ACM_CoreSetLineCoding)
    USBD_CDC_ACM_ReadData                    0x00002181   Thumb Code   192  usbd_lib_cdc.o(i.USBD_CDC_ACM_ReadData)
    USBD_CDC_ACM_WriteData                   0x0000224d   Thumb Code   162  usbd_lib_cdc.o(i.USBD_CDC_ACM_WriteData)
    USBD_CDC_Bulk_Thread                     0x000022f9   Thumb Code    52  usbd_lib_cdc.o(i.USBD_CDC_Bulk_Thread)
    USBD_CDC_EndpointStart                   0x00002375   Thumb Code   126  usbd_lib_cdc.o(i.USBD_CDC_EndpointStart)
    USBD_CDC_EndpointStop                    0x00002405   Thumb Code    70  usbd_lib_cdc.o(i.USBD_CDC_EndpointStop)
    USBD_CDC_Initialize                      0x000027a1   Thumb Code    92  usbd_lib_cdc.o(i.USBD_CDC_Initialize)
    USBD_CDC_Int_Thread                      0x00002811   Thumb Code   116  usbd_lib_cdc.o(i.USBD_CDC_Int_Thread)
    USBD_CDC_NCM_CoreGetCrcMode              0x00002889   Thumb Code    32  usbd_lib_cdc.o(i.USBD_CDC_NCM_CoreGetCrcMode)
    USBD_CDC_NCM_CoreGetEthernetPowerManagementPatternFilter 0x000028ad   Thumb Code    40  usbd_lib_cdc.o(i.USBD_CDC_NCM_CoreGetEthernetPowerManagementPatternFilter)
    USBD_CDC_NCM_CoreGetEthernetStatistic    0x000028d9   Thumb Code    40  usbd_lib_cdc.o(i.USBD_CDC_NCM_CoreGetEthernetStatistic)
    USBD_CDC_NCM_CoreGetMaxDatagramSize      0x00002905   Thumb Code    32  usbd_lib_cdc.o(i.USBD_CDC_NCM_CoreGetMaxDatagramSize)
    USBD_CDC_NCM_CoreGetNetAddress           0x00002929   Thumb Code    32  usbd_lib_cdc.o(i.USBD_CDC_NCM_CoreGetNetAddress)
    USBD_CDC_NCM_CoreGetNtbFormat            0x0000294d   Thumb Code    32  usbd_lib_cdc.o(i.USBD_CDC_NCM_CoreGetNtbFormat)
    USBD_CDC_NCM_CoreGetNtbInputSize         0x00002971   Thumb Code    32  usbd_lib_cdc.o(i.USBD_CDC_NCM_CoreGetNtbInputSize)
    USBD_CDC_NCM_CoreGetNtbParameters        0x00002995   Thumb Code    32  usbd_lib_cdc.o(i.USBD_CDC_NCM_CoreGetNtbParameters)
    USBD_CDC_NCM_CoreSetCrcMode              0x000029b9   Thumb Code    46  usbd_lib_cdc.o(i.USBD_CDC_NCM_CoreSetCrcMode)
    USBD_CDC_NCM_CoreSetEthernetMulticastFilters 0x000029f1   Thumb Code    40  usbd_lib_cdc.o(i.USBD_CDC_NCM_CoreSetEthernetMulticastFilters)
    USBD_CDC_NCM_CoreSetEthernetPacketFilter 0x00002a1d   Thumb Code    32  usbd_lib_cdc.o(i.USBD_CDC_NCM_CoreSetEthernetPacketFilter)
    USBD_CDC_NCM_CoreSetEthernetPowerManagementPatternFilter 0x00002a41   Thumb Code    44  usbd_lib_cdc.o(i.USBD_CDC_NCM_CoreSetEthernetPowerManagementPatternFilter)
    USBD_CDC_NCM_CoreSetMaxDatagramSize      0x00002a71   Thumb Code    44  usbd_lib_cdc.o(i.USBD_CDC_NCM_CoreSetMaxDatagramSize)
    USBD_CDC_NCM_CoreSetNetAddress           0x00002aa5   Thumb Code    32  usbd_lib_cdc.o(i.USBD_CDC_NCM_CoreSetNetAddress)
    USBD_CDC_NCM_CoreSetNtbFormat            0x00002ac9   Thumb Code    46  usbd_lib_cdc.o(i.USBD_CDC_NCM_CoreSetNtbFormat)
    USBD_CDC_NCM_CoreSetNtbInputSize         0x00002b01   Thumb Code    44  usbd_lib_cdc.o(i.USBD_CDC_NCM_CoreSetNtbInputSize)
    USBD_CDC_Reset                           0x00002b35   Thumb Code   182  usbd_lib_cdc.o(i.USBD_CDC_Reset)
    USBD_ClassInitialize                     0x00002c29   Thumb Code    50  usbd_config_0.o(i.USBD_ClassInitialize)
    USBD_Class_Endpoint0_InDataSent          0x00002c61   Thumb Code     4  usbd_config_0.o(i.USBD_Class_Endpoint0_InDataSent)
    USBD_Class_Endpoint0_OutDataReceived     0x00002c65   Thumb Code     4  usbd_config_0.o(i.USBD_Class_Endpoint0_OutDataReceived)
    USBD_Class_Endpoint0_SetupPacketProcessed 0x00002c69   Thumb Code     2  usbd_config_0.o(i.USBD_Class_Endpoint0_SetupPacketProcessed)
    USBD_Class_Endpoint0_SetupPacketReceived 0x00002c6b   Thumb Code     4  usbd_config_0.o(i.USBD_Class_Endpoint0_SetupPacketReceived)
    USBD_Connect                             0x00002c6f   Thumb Code    24  usbd_lib_core.o(i.USBD_Connect)
    USBD_Core_Endpoint0_InDataSent           0x00002d61   Thumb Code    54  usbd_lib_core_device.o(i.USBD_Core_Endpoint0_InDataSent)
    USBD_Core_Endpoint0_OutDataReceived      0x00002da5   Thumb Code    54  usbd_lib_core_device.o(i.USBD_Core_Endpoint0_OutDataReceived)
    USBD_Core_Endpoint0_SetupPacketProcessed 0x00002de9   Thumb Code    46  usbd_lib_core_device.o(i.USBD_Core_Endpoint0_SetupPacketProcessed)
    USBD_Core_Endpoint0_SetupPacketReceived  0x00002e25   Thumb Code    68  usbd_lib_core_device.o(i.USBD_Core_Endpoint0_SetupPacketReceived)
    USBD_Core_Thread                         0x00002e75   Thumb Code   134  usbd_lib_core.o(i.USBD_Core_Thread)
    USBD_DataInStage                         0x00002f09   Thumb Code    74  usbd_lib_core.o(i.USBD_DataInStage)
    USBD_DataOutStage                        0x00002f59   Thumb Code    38  usbd_lib_core.o(i.USBD_DataOutStage)
    USBD_Delay                               0x00002f85   Thumb Code    10  usbd_config_0.o(i.USBD_Delay)
    USBD_Device0_ConfigurationChanged        0x00002f8f   Thumb Code     2  usbd_config_0.o(i.USBD_Device0_ConfigurationChanged)
    USBD_Device0_DisableRemoteWakeup         0x00002f91   Thumb Code     2  usbd_config_0.o(i.USBD_Device0_DisableRemoteWakeup)
    USBD_Device0_EnableRemoteWakeup          0x00002f93   Thumb Code     2  usbd_config_0.o(i.USBD_Device0_EnableRemoteWakeup)
    USBD_Device0_Endpoint0_InDataSent        0x00002f95   Thumb Code     4  usbd_config_0.o(i.USBD_Device0_Endpoint0_InDataSent)
    USBD_Device0_Endpoint0_OutDataReceived   0x00002f99   Thumb Code     4  usbd_config_0.o(i.USBD_Device0_Endpoint0_OutDataReceived)
    USBD_Device0_Endpoint0_SetupPacketProcessed 0x00002f9d   Thumb Code     2  usbd_config_0.o(i.USBD_Device0_Endpoint0_SetupPacketProcessed)
    USBD_Device0_Endpoint0_SetupPacketReceived 0x00002f9f   Thumb Code     4  usbd_config_0.o(i.USBD_Device0_Endpoint0_SetupPacketReceived)
    USBD_Device0_EventReset                  0x00002fa3   Thumb Code     2  usbd_config_0.o(i.USBD_Device0_EventReset)
    USBD_Device0_HighSpeedActivated          0x00002fa5   Thumb Code     2  usbd_config_0.o(i.USBD_Device0_HighSpeedActivated)
    USBD_Device0_Initialize                  0x00002fa7   Thumb Code     2  usbd_config_0.o(i.USBD_Device0_Initialize)
    USBD_Device0_Reset                       0x00002fa9   Thumb Code     8  usbd_config_0.o(i.USBD_Device0_Reset)
    USBD_Device0_Resumed                     0x00002fb1   Thumb Code     2  usbd_config_0.o(i.USBD_Device0_Resumed)
    USBD_Device0_Suspended                   0x00002fb3   Thumb Code     2  usbd_config_0.o(i.USBD_Device0_Suspended)
    USBD_Device0_VbusChanged                 0x00002fb5   Thumb Code     2  usbd_config_0.o(i.USBD_Device0_VbusChanged)
    USBD_DriverDeviceConnect                 0x00003179   Thumb Code    94  usbd_lib_drv.o(i.USBD_DriverDeviceConnect)
    USBD_DriverDeviceSetAddress              0x000031e1   Thumb Code   100  usbd_lib_drv.o(i.USBD_DriverDeviceSetAddress)
    USBD_DriverEndpointConfigure             0x0000324d   Thumb Code   172  usbd_lib_drv.o(i.USBD_DriverEndpointConfigure)
    USBD_DriverEndpointStall                 0x00003305   Thumb Code   168  usbd_lib_drv.o(i.USBD_DriverEndpointStall)
    USBD_DriverEndpointTransfer              0x000033b9   Thumb Code   212  usbd_lib_drv.o(i.USBD_DriverEndpointTransfer)
    USBD_DriverEndpointTransferAbort         0x00003499   Thumb Code   166  usbd_lib_drv.o(i.USBD_DriverEndpointTransferAbort)
    USBD_DriverEndpointTransferGetResult     0x0000354d   Thumb Code   104  usbd_lib_drv.o(i.USBD_DriverEndpointTransferGetResult)
    USBD_DriverEndpointUnconfigure           0x000035c1   Thumb Code   162  usbd_lib_drv.o(i.USBD_DriverEndpointUnconfigure)
    USBD_DriverGetCapabilities               0x00003671   Thumb Code    12  usbd_lib_drv.o(i.USBD_DriverGetCapabilities)
    USBD_DriverGetVersion                    0x00003681   Thumb Code    12  usbd_lib_drv.o(i.USBD_DriverGetVersion)
    USBD_DriverInitialize                    0x00003691   Thumb Code   102  usbd_lib_drv.o(i.USBD_DriverInitialize)
    USBD_DriverPowerControl                  0x00003701   Thumb Code   100  usbd_lib_drv.o(i.USBD_DriverPowerControl)
    USBD_DriverReadSetupPacket               0x0000376d   Thumb Code   100  usbd_lib_drv.o(i.USBD_DriverReadSetupPacket)
    USBD_Endpoint0_ClearFeatureStall_MSC     0x00003b4d   Thumb Code     2  usbd_config_0.o(i.USBD_Endpoint0_ClearFeatureStall_MSC)
    USBD_Endpoint0_Out_ADC_ReqToEP           0x00003b4f   Thumb Code     4  usbd_config_0.o(i.USBD_Endpoint0_Out_ADC_ReqToEP)
    USBD_Endpoint0_Out_ADC_ReqToIF           0x00003b53   Thumb Code     4  usbd_config_0.o(i.USBD_Endpoint0_Out_ADC_ReqToIF)
    USBD_Endpoint0_Out_CDC_ReqToIF           0x00003b59   Thumb Code   238  usbd_lib_core_cdc.o(i.USBD_Endpoint0_Out_CDC_ReqToIF)
    USBD_Endpoint0_Out_HID_ReqToIF           0x00003c59   Thumb Code     4  usbd_config_0.o(i.USBD_Endpoint0_Out_HID_ReqToIF)
    USBD_Endpoint0_ReqGetDescriptor_HID      0x00003c5d   Thumb Code     4  usbd_config_0.o(i.USBD_Endpoint0_ReqGetDescriptor_HID)
    USBD_Endpoint0_ReqGetExtProp_CC          0x00003c61   Thumb Code     4  usbd_config_0.o(i.USBD_Endpoint0_ReqGetExtProp_CC)
    USBD_Endpoint0_Setup_ADC_ReqToEP         0x00003c65   Thumb Code     4  usbd_config_0.o(i.USBD_Endpoint0_Setup_ADC_ReqToEP)
    USBD_Endpoint0_Setup_ADC_ReqToIF         0x00003c69   Thumb Code     4  usbd_config_0.o(i.USBD_Endpoint0_Setup_ADC_ReqToIF)
    USBD_Endpoint0_Setup_CDC_ReqToIF         0x00003c6d   Thumb Code   774  usbd_lib_core_cdc.o(i.USBD_Endpoint0_Setup_CDC_ReqToIF)
    USBD_Endpoint0_Setup_HID_ReqToIF         0x00003f85   Thumb Code     4  usbd_config_0.o(i.USBD_Endpoint0_Setup_HID_ReqToIF)
    USBD_Endpoint0_Setup_MSC_ReqToIF         0x00003f89   Thumb Code     4  usbd_config_0.o(i.USBD_Endpoint0_Setup_MSC_ReqToIF)
    USBD_EndpointStart                       0x00004141   Thumb Code    72  usbd_config_0.o(i.USBD_EndpointStart)
    USBD_EndpointStop                        0x0000418d   Thumb Code    72  usbd_config_0.o(i.USBD_EndpointStop)
    USBD_IRQ                                 0x0000456d   Thumb Code   762  usbd_lpc17xx.o(i.USBD_IRQ)
    USBD_Initialize                          0x000048bd   Thumb Code   234  usbd_lib_core.o(i.USBD_Initialize)
    USBD_Reset                               0x00005365   Thumb Code    38  usbd_config_0.o(i.USBD_Reset)
    USBD_SemaphoreAcquire                    0x000053b9   Thumb Code    24  usbd_config_0.o(i.USBD_SemaphoreAcquire)
    USBD_SemaphoreCreate                     0x000053d1   Thumb Code    40  usbd_config_0.o(i.USBD_SemaphoreCreate)
    USBD_SemaphoreRelease                    0x000053fd   Thumb Code    18  usbd_config_0.o(i.USBD_SemaphoreRelease)
    USBD_SetConfiguration                    0x0000540f   Thumb Code     2  usbd_config_0.o(i.USBD_SetConfiguration)
    USBD_SignalDeviceEvent                   0x00005411   Thumb Code    10  usbd_lib_drv.o(i.USBD_SignalDeviceEvent)
    USBD_SignalEndpointEvent                 0x00005421   Thumb Code    60  usbd_lib_drv.o(i.USBD_SignalEndpointEvent)
    USBD_StatusInStage                       0x00005469   Thumb Code    10  usbd_lib_core.o(i.USBD_StatusInStage)
    USBD_StatusInStageDone                   0x00005473   Thumb Code    16  usbd_lib_core.o(i.USBD_StatusInStageDone)
    USBD_StatusOutStage                      0x00005483   Thumb Code    10  usbd_lib_core.o(i.USBD_StatusOutStage)
    USBD_StatusOutStageDone                  0x0000548d   Thumb Code    42  usbd_lib_core.o(i.USBD_StatusOutStageDone)
    USBD_ThreadCreate                        0x000054bd   Thumb Code    46  usbd_config_0.o(i.USBD_ThreadCreate)
    USBD_ThreadFlagsSet                      0x000054f1   Thumb Code    12  usbd_config_0.o(i.USBD_ThreadFlagsSet)
    USBD_ThreadFlagsWait                     0x000054fd   Thumb Code    32  usbd_config_0.o(i.USBD_ThreadFlagsWait)
    USB_IRQHandler                           0x00005541   Thumb Code     4  otg_lpc17xx.o(i.USB_IRQHandler)
    USB_PinsConfigure                        0x00005545   Thumb Code   148  otg_lpc17xx.o(i.USB_PinsConfigure)
    USB_PinsUnconfigure                      0x000055dd   Thumb Code   144  otg_lpc17xx.o(i.USB_PinsUnconfigure)
    _init_box                                0x000056fb   Thumb Code    70  rt_membox.o(i._init_box)
    _mutex_acquire                           0x00005741   Thumb Code    22  rtx_conf_cm.o(i._mutex_acquire)
    _mutex_release                           0x00005761   Thumb Code    18  rtx_conf_cm.o(i._mutex_release)
    dbg_init                                 0x0000579d   Thumb Code    34  hal_cm.o(i.dbg_init)
    dbg_task_notify                          0x000057cd   Thumb Code    32  hal_cm.o(i.dbg_task_notify)
    dbg_task_switch                          0x000057ed   Thumb Code    16  hal_cm.o(i.dbg_task_switch)
    initADC                                  0x000057fd   Thumb Code    62  virtualcom.o(i.initADC)
    initPWM                                  0x0000584d   Thumb Code    48  virtualcom.o(i.initPWM)
    initTIM0                                 0x00005885   Thumb Code    28  virtualcom.o(i.initTIM0)
    isrMessageGet                            0x000058a1   Thumb Code    42  rt_cmsis.o(i.isrMessageGet)
    isrMessagePut                            0x000058cb   Thumb Code    44  rt_cmsis.o(i.isrMessagePut)
    isrSemaphoreRelease                      0x000058f7   Thumb Code    40  rt_cmsis.o(i.isrSemaphoreRelease)
    isrSignalSet                             0x0000591f   Thumb Code    36  rt_cmsis.o(i.isrSignalSet)
    isr_evt_set                              0x00005945   Thumb Code    34  rt_event.o(i.isr_evt_set)
    isr_mbx_receive                          0x0000596d   Thumb Code    86  rt_mailbox.o(i.isr_mbx_receive)
    isr_mbx_send                             0x000059c3   Thumb Code    14  rt_mailbox.o(i.isr_mbx_send)
    isr_sem_send                             0x000059d1   Thumb Code    16  rt_semaphore.o(i.isr_sem_send)
    main                                     0x000059e1   Thumb Code    66  virtualcom.o(i.main)
    osDelay                                  0x00005a2d   Thumb Code    18  rt_cmsis.o(i.osDelay)
    osKernelInitialize                       0x00005a45   Thumb Code    30  rt_cmsis.o(i.osKernelInitialize)
    osKernelStart                            0x00005a69   Thumb Code    98  rt_cmsis.o(i.osKernelStart)
    osMessageGet                             0x00005ad5   Thumb Code    18  rt_cmsis.o(i.osMessageGet)
    osSemaphoreCreate                        0x00005aed   Thumb Code    36  rt_cmsis.o(i.osSemaphoreCreate)
    osSemaphoreRelease                       0x00005b19   Thumb Code    18  rt_cmsis.o(i.osSemaphoreRelease)
    osSemaphoreWait                          0x00005b31   Thumb Code    20  rt_cmsis.o(i.osSemaphoreWait)
    osSignalSet                              0x00005b49   Thumb Code    18  rt_cmsis.o(i.osSignalSet)
    osSignalWait                             0x00005b61   Thumb Code    18  rt_cmsis.o(i.osSignalWait)
    osThreadCreate                           0x00005b79   Thumb Code    36  rt_cmsis.o(i.osThreadCreate)
    osThreadExit                             0x00005ba5   Thumb Code    14  rt_cmsis.o(i.osThreadExit)
    osTimerCall                              0x00005bbd   Thumb Code     8  rt_cmsis.o(i.osTimerCall)
    osTimerThread                            0x00005bc9   Thumb Code    38  rt_cmsis.o(i.osTimerThread)
    os_error                                 0x00005bf5   Thumb Code     2  rtx_conf_cm.o(i.os_error)
    os_idle_demon                            0x00005bf7   Thumb Code     2  rtx_conf_cm.o(i.os_idle_demon)
    os_tick_init                             0x00005bf9   Thumb Code    32  rt_system.o(i.os_tick_init)
    os_tick_irqack                           0x00005c21   Thumb Code     2  rt_system.o(i.os_tick_irqack)
    rt_alloc_box                             0x00005c23   Thumb Code    26  rt_membox.o(i.rt_alloc_box)
    rt_alloc_mem                             0x00005c3d   Thumb Code    62  rt_memory.o(i.rt_alloc_mem)
    rt_block                                 0x00005c7d   Thumb Code    48  rt_task.o(i.rt_block)
    rt_chk_robin                             0x00005cb5   Thumb Code    60  rt_robin.o(i.rt_chk_robin)
    rt_dec_dly                               0x00005cfd   Thumb Code   102  rt_list.o(i.rt_dec_dly)
    rt_dispatch                              0x00005d6d   Thumb Code    60  rt_task.o(i.rt_dispatch)
    rt_dly_wait                              0x00005db1   Thumb Code     6  rt_time.o(i.rt_dly_wait)
    rt_evt_psh                               0x00005db9   Thumb Code    76  rt_event.o(i.rt_evt_psh)
    rt_evt_set                               0x00005e09   Thumb Code    88  rt_event.o(i.rt_evt_set)
    rt_evt_wait                              0x00005e65   Thumb Code    56  rt_event.o(i.rt_evt_wait)
    rt_free_box                              0x00005ea1   Thumb Code    44  rt_membox.o(i.rt_free_box)
    rt_free_mem                              0x00005ecd   Thumb Code    40  rt_memory.o(i.rt_free_mem)
    rt_get_first                             0x00005ef5   Thumb Code    40  rt_list.o(i.rt_get_first)
    rt_init_mem                              0x00005f6d   Thumb Code    26  rt_memory.o(i.rt_init_mem)
    rt_init_robin                            0x00005f89   Thumb Code    14  rt_robin.o(i.rt_init_robin)
    rt_init_stack                            0x00005fa1   Thumb Code   118  hal_cm.o(i.rt_init_stack)
    rt_mbx_check                             0x00006021   Thumb Code     8  rt_mailbox.o(i.rt_mbx_check)
    rt_mbx_init                              0x00006029   Thumb Code    26  rt_mailbox.o(i.rt_mbx_init)
    rt_mbx_psh                               0x00006045   Thumb Code   236  rt_mailbox.o(i.rt_mbx_psh)
    rt_mbx_wait                              0x00006135   Thumb Code   174  rt_mailbox.o(i.rt_mbx_wait)
    rt_mut_release                           0x0000622d   Thumb Code   208  rt_mutex.o(i.rt_mut_release)
    rt_mut_wait                              0x00006305   Thumb Code   114  rt_mutex.o(i.rt_mut_wait)
    rt_pop_req                               0x0000637d   Thumb Code   112  rt_system.o(i.rt_pop_req)
    rt_psh_req                               0x000063f9   Thumb Code    22  rt_system.o(i.rt_psh_req)
    rt_psq_enq                               0x00006419   Thumb Code    88  rt_list.o(i.rt_psq_enq)
    rt_put_dly                               0x00006475   Thumb Code    68  rt_list.o(i.rt_put_dly)
    rt_put_prio                              0x000064bd   Thumb Code    54  rt_list.o(i.rt_put_prio)
    rt_put_rdy_first                         0x000064f5   Thumb Code    14  rt_list.o(i.rt_put_rdy_first)
    rt_resort_prio                           0x00006509   Thumb Code    46  rt_list.o(i.rt_resort_prio)
    rt_ret_val                               0x0000653d   Thumb Code     6  hal_cm.o(i.rt_ret_val)
    rt_ret_val2                              0x00006543   Thumb Code     8  hal_cm.o(i.rt_ret_val2)
    rt_rmv_dly                               0x0000654b   Thumb Code    40  rt_list.o(i.rt_rmv_dly)
    rt_rmv_list                              0x00006575   Thumb Code    44  rt_list.o(i.rt_rmv_list)
    rt_sem_init                              0x000065a5   Thumb Code    12  rt_semaphore.o(i.rt_sem_init)
    rt_sem_psh                               0x000065b1   Thumb Code    48  rt_semaphore.o(i.rt_sem_psh)
    rt_sem_send                              0x000065e5   Thumb Code    42  rt_semaphore.o(i.rt_sem_send)
    rt_sem_wait                              0x00006611   Thumb Code    58  rt_semaphore.o(i.rt_sem_wait)
    rt_stk_check                             0x00006651   Thumb Code    28  rt_system.o(i.rt_stk_check)
    rt_switch_req                            0x00006675   Thumb Code    30  rt_task.o(i.rt_switch_req)
    rt_sys_init                              0x0000669d   Thumb Code   138  rt_task.o(i.rt_sys_init)
    rt_sys_start                             0x00006769   Thumb Code   110  rt_task.o(i.rt_sys_start)
    rt_systick                               0x000067e1   Thumb Code    50  rt_system.o(i.rt_systick)
    rt_tsk_create                            0x00006869   Thumb Code   118  rt_task.o(i.rt_tsk_create)
    rt_tsk_delete                            0x000068f1   Thumb Code   352  rt_task.o(i.rt_tsk_delete)
    rt_tsk_prio                              0x00006a6d   Thumb Code   108  rt_task.o(i.rt_tsk_prio)
    rt_tsk_self                              0x00006ae9   Thumb Code    12  rt_task.o(i.rt_tsk_self)
    send0                                    0x00006af9   Thumb Code   120  virtualcom.o(i.send0)
    svcDelay                                 0x00006b79   Thumb Code    18  rt_cmsis.o(i.svcDelay)
    svcKernelInitialize                      0x00006b8d   Thumb Code    80  rt_cmsis.o(i.svcKernelInitialize)
    svcKernelStart                           0x00006bfd   Thumb Code    62  rt_cmsis.o(i.svcKernelStart)
    svcMessageCreate                         0x00006c45   Thumb Code    36  rt_cmsis.o(i.svcMessageCreate)
    svcMessageGet                            0x00006c69   Thumb Code    58  rt_cmsis.o(i.svcMessageGet)
    svcSemaphoreCreate                       0x00006ca3   Thumb Code    36  rt_cmsis.o(i.svcSemaphoreCreate)
    svcSemaphoreRelease                      0x00006cc7   Thumb Code    40  rt_cmsis.o(i.svcSemaphoreRelease)
    svcSemaphoreWait                         0x00006cef   Thumb Code    50  rt_cmsis.o(i.svcSemaphoreWait)
    svcSignalSet                             0x00006d21   Thumb Code    36  rt_cmsis.o(i.svcSignalSet)
    svcSignalWait                            0x00006d45   Thumb Code    80  rt_cmsis.o(i.svcSignalWait)
    svcThreadCreate                          0x00006d99   Thumb Code    96  rt_cmsis.o(i.svcThreadCreate)
    svcThreadGetId                           0x00006e05   Thumb Code    22  rt_cmsis.o(i.svcThreadGetId)
    svcThreadTerminate                       0x00006e21   Thumb Code    50  rt_cmsis.o(i.svcThreadTerminate)
    svcTimerCall                             0x00006e59   Thumb Code    24  rt_cmsis.o(i.svcTimerCall)
    sysTimerTick                             0x00006e71   Thumb Code    84  rt_cmsis.o(i.sysTimerTick)
    os_thread_def_CDC0_ACM_UART_to_USB_Threadm 0x00006ecc   Data          16  virtualcom.o(.constdata)
    os_thread_def_CDC0_ACM_UART_to_USB_Thread 0x00006edc   Data          16  usbd_user_cdc_acm_uart_0.o(.constdata)
    os_maxtaskrun                            0x00006eec   Data           2  rtx_conf_cm.o(.constdata)
    os_stackinfo                             0x00006ef0   Data           4  rtx_conf_cm.o(.constdata)
    os_rrobin                                0x00006ef4   Data           4  rtx_conf_cm.o(.constdata)
    os_trv                                   0x00006ef8   Data           4  rtx_conf_cm.o(.constdata)
    os_flags                                 0x00006efc   Data           1  rtx_conf_cm.o(.constdata)
    CMSIS_RTOS_API_Version                   0x00006f00   Data           4  rtx_conf_cm.o(.constdata)
    CMSIS_RTOS_RTX_Version                   0x00006f04   Data           4  rtx_conf_cm.o(.constdata)
    os_clockrate                             0x00006f08   Data           4  rtx_conf_cm.o(.constdata)
    os_timernum                              0x00006f0c   Data           4  rtx_conf_cm.o(.constdata)
    mp_tcb_size                              0x00006f10   Data           2  rtx_conf_cm.o(.constdata)
    mp_stk_size                              0x00006f14   Data           4  rtx_conf_cm.o(.constdata)
    os_stack_sz                              0x00006f18   Data           4  rtx_conf_cm.o(.constdata)
    os_fifo_size                             0x00006f1c   Data           1  rtx_conf_cm.o(.constdata)
    os_thread_def_osTimerThread              0x00006f20   Data          16  rtx_conf_cm.o(.constdata)
    os_messageQ_def_osTimerMessageQ          0x00006f30   Data           8  rtx_conf_cm.o(.constdata)
    mp_tmr_size                              0x00006f38   Data           2  rtx_conf_cm.o(.constdata)
    os_thread_def_main                       0x00006f3c   Data          16  rtx_conf_cm.o(.constdata)
    Driver_USART1                            0x00007134   Data          56  uart_lpc17xx.o(.constdata)
    Driver_USBD0                             0x00007174   Data          72  usbd_lpc17xx.o(.constdata)
    usbd0_dev                                0x000071bc   Data          28  usbd_config_0.o(.constdata)
    os_thread_def_USBD0_Core_Thread          0x000071d8   Data          16  usbd_config_0.o(.constdata)
    usbd_dev_num                             0x000071e8   Data           1  usbd_config_0.o(.constdata)
    usbd_dev_ptr                             0x000071ec   Data           4  usbd_config_0.o(.constdata)
    usbd_cdc_num                             0x000071f0   Data           1  usbd_config_0.o(.constdata)
    usbd_cdc                                 0x000071f4   Data          72  usbd_config_0.o(.constdata)
    usbd_cdc_ptr                             0x0000723c   Data           4  usbd_config_0.o(.constdata)
    os_thread_def_USBD_CDC0_Int_Thread       0x00007268   Data          16  usbd_config_0.o(.constdata)
    os_thread_def_USBD_CDC0_Bulk_Thread      0x00007278   Data          16  usbd_config_0.o(.constdata)
    os_semaphore_def_usbd0_driver_semaphore  0x00007288   Data           4  usbd_config_0.o(.constdata)
    os_semaphore_def_usbd0_driver_ep0out_semaphore 0x0000728c   Data           4  usbd_config_0.o(.constdata)
    os_semaphore_def_usbd0_driver_ep0in_semaphore 0x00007290   Data           4  usbd_config_0.o(.constdata)
    os_semaphore_def_usbd0_driver_ep1out_semaphore 0x00007294   Data           4  usbd_config_0.o(.constdata)
    os_semaphore_def_usbd0_driver_ep1in_semaphore 0x00007298   Data           4  usbd_config_0.o(.constdata)
    os_semaphore_def_usbd0_driver_ep2out_semaphore 0x0000729c   Data           4  usbd_config_0.o(.constdata)
    os_semaphore_def_usbd0_driver_ep2in_semaphore 0x000072a0   Data           4  usbd_config_0.o(.constdata)
    usbd_ep_max_num                          0x000072a4   Data           1  usbd_config_0.o(.constdata)
    usbd_cb_device_event_ptr                 0x000072a8   Data           4  usbd_config_0.o(.constdata)
    usbd_cb_endpoint_event_ptr               0x000072ac   Data           4  usbd_config_0.o(.constdata)
    fpUSBD_CDC_ACM_Initialize                0x000072b0   Data           4  usbd_config_0.o(.constdata)
    fpUSBD_CDC_ACM_Reset                     0x000072b4   Data           4  usbd_config_0.o(.constdata)
    fpUSBD_CDC_ACM_SetLineCoding             0x000072b8   Data           4  usbd_config_0.o(.constdata)
    fpUSBD_CDC_ACM_GetLineCoding             0x000072bc   Data           4  usbd_config_0.o(.constdata)
    fpUSBD_CDC_ACM_SetControlLineState       0x000072c0   Data           4  usbd_config_0.o(.constdata)
    fpUSBD_CDC_ACM_DataReceived              0x000072c4   Data           4  usbd_config_0.o(.constdata)
    fpUSBD_CDC_ACM_DataSent                  0x000072c8   Data           4  usbd_config_0.o(.constdata)
    fpUSBD_CDC_NCM_Initialize                0x000072cc   Data           4  usbd_config_0.o(.constdata)
    fpUSBD_CDC_NCM_Reset                     0x000072d0   Data           4  usbd_config_0.o(.constdata)
    fpUSBD_CDC_NCM_Start                     0x000072d4   Data           4  usbd_config_0.o(.constdata)
    fpUSBD_CDC_NCM_Stop                      0x000072d8   Data           4  usbd_config_0.o(.constdata)
    fpUSBD_CDC_NCM_SetEthernetMulticastFilters 0x000072dc   Data           4  usbd_config_0.o(.constdata)
    fpUSBD_CDC_NCM_SetEthernetPowerManagementPatternFilter 0x000072e0   Data           4  usbd_config_0.o(.constdata)
    fpUSBD_CDC_NCM_GetEthernetPowerManagementPatternFilter 0x000072e4   Data           4  usbd_config_0.o(.constdata)
    fpUSBD_CDC_NCM_SetEthernetPacketFilter   0x000072e8   Data           4  usbd_config_0.o(.constdata)
    fpUSBD_CDC_NCM_GetEthernetStatistic      0x000072ec   Data           4  usbd_config_0.o(.constdata)
    fpUSBD_CDC_NCM_GetNtbParameters          0x000072f0   Data           4  usbd_config_0.o(.constdata)
    fpUSBD_CDC_NCM_GetNetAddress             0x000072f4   Data           4  usbd_config_0.o(.constdata)
    fpUSBD_CDC_NCM_SetNetAddress             0x000072f8   Data           4  usbd_config_0.o(.constdata)
    fpUSBD_CDC_NCM_GetNtbFormat              0x000072fc   Data           4  usbd_config_0.o(.constdata)
    fpUSBD_CDC_NCM_SetNtbFormat              0x00007300   Data           4  usbd_config_0.o(.constdata)
    fpUSBD_CDC_NCM_GetNtbInputSize           0x00007304   Data           4  usbd_config_0.o(.constdata)
    fpUSBD_CDC_NCM_SetNtbInputSize           0x00007308   Data           4  usbd_config_0.o(.constdata)
    fpUSBD_CDC_NCM_GetMaxDatagramSize        0x0000730c   Data           4  usbd_config_0.o(.constdata)
    fpUSBD_CDC_NCM_SetMaxDatagramSize        0x00007310   Data           4  usbd_config_0.o(.constdata)
    fpUSBD_CDC_NCM_GetCrcMode                0x00007314   Data           4  usbd_config_0.o(.constdata)
    fpUSBD_CDC_NCM_SetCrcMode                0x00007318   Data           4  usbd_config_0.o(.constdata)
    fpUSBD_CDC_NCM_NTB_IN_Sent               0x0000731c   Data           4  usbd_config_0.o(.constdata)
    fpUSBD_CDC_NCM_NTB_OUT_Received          0x00007320   Data           4  usbd_config_0.o(.constdata)
    fpUSBD_Device_Initialize                 0x00007324   Data           4  usbd_config_0.o(.constdata)
    fpUSBD_Device_VbusChanged                0x00007328   Data           4  usbd_config_0.o(.constdata)
    fpUSBD_Device_Reset                      0x0000732c   Data           4  usbd_config_0.o(.constdata)
    fpUSBD_Device_HighSpeedActivated         0x00007330   Data           4  usbd_config_0.o(.constdata)
    fpUSBD_Device_Suspended                  0x00007334   Data           4  usbd_config_0.o(.constdata)
    fpUSBD_Device_Resumed                    0x00007338   Data           4  usbd_config_0.o(.constdata)
    fpUSBD_Device_ConfigurationChanged       0x0000733c   Data           4  usbd_config_0.o(.constdata)
    fpUSBD_Device_EnableRemoteWakeup         0x00007340   Data           4  usbd_config_0.o(.constdata)
    fpUSBD_Device_DisableRemoteWakeup        0x00007344   Data           4  usbd_config_0.o(.constdata)
    fpUSBD_Device_Endpoint0_SetupPacketReceived 0x00007348   Data           4  usbd_config_0.o(.constdata)
    fpUSBD_Device_Endpoint0_SetupPacketProcessed 0x0000734c   Data           4  usbd_config_0.o(.constdata)
    fpUSBD_Device_Endpoint0_OutDataReceived  0x00007350   Data           4  usbd_config_0.o(.constdata)
    fpUSBD_Device_Endpoint0_InDataSent       0x00007354   Data           4  usbd_config_0.o(.constdata)
    usbd0_ep0_descriptor                     0x00007358   Data           7  usbd_config_0.o(.constdata)
    usbd0_device_descriptor                  0x00007360   Data          18  usbd_config_0.o(.constdata)
    usbd0_config_descriptor_fs               0x00007374   Data          68  usbd_config_0.o(.constdata)
    usbd0_device_qualifier_fs                0x000073b8   Data           1  usbd_config_0.o(.constdata)
    usbd0_device_qualifier_hs                0x000073b9   Data           1  usbd_config_0.o(.constdata)
    usbd0_config_descriptor_hs               0x000073ba   Data           1  usbd_config_0.o(.constdata)
    usbd0_other_speed_config_descriptor_fs   0x000073bb   Data           1  usbd_config_0.o(.constdata)
    usbd0_other_speed_config_descriptor_hs   0x000073bc   Data           1  usbd_config_0.o(.constdata)
    usbd0_string_descriptor                  0x000073c0   Data         135  usbd_config_0.o(.constdata)
    Region$$Table$$Base                      0x00007448   Number         0  anon$$obj.o(Region$$Table)
    Region$$Table$$Limit                     0x00007468   Number         0  anon$$obj.o(Region$$Table)
    usb_lib_version                          0x00007468   Data           4  usb_lib_ver.o(__MW_USB_LIB_VERSION_6.12.4)
    counter                                  0x10000000   Data           4  virtualcom.o(.data)
    counterUART                              0x10000004   Data           4  virtualcom.o(.data)
    s1                                       0x10000008   Data           4  virtualcom.o(.data)
    i                                        0x1000000c   Data           4  virtualcom.o(.data)
    kk0                                      0x10000010   Data           4  virtualcom.o(.data)
    flv                                      0x10000014   Data           4  virtualcom.o(.data)
    m_tmr                                    0x1000002c   Data           4  rtx_conf_cm.o(.data)
    osThreadId_osTimerThread                 0x10000030   Data           4  rtx_conf_cm.o(.data)
    osMessageQId_osTimerMessageQ             0x10000034   Data           4  rtx_conf_cm.o(.data)
    usb_role                                 0x10000038   Data           1  otg_lpc17xx.o(.data)
    usb_pin_cfg                              0x10000039   Data           1  otg_lpc17xx.o(.data)
    usb_state                                0x1000003a   Data           1  otg_lpc17xx.o(.data)
    SystemCoreClock                          0x10000068   Data           4  system_lpc17xx.o(.data)
    os_semaphore_cb_usbd0_driver_semaphore   0x1000006c   Data           8  usbd_config_0.o(.data)
    os_semaphore_cb_usbd0_driver_ep0out_semaphore 0x10000074   Data           8  usbd_config_0.o(.data)
    os_semaphore_cb_usbd0_driver_ep0in_semaphore 0x1000007c   Data           8  usbd_config_0.o(.data)
    os_semaphore_cb_usbd0_driver_ep1out_semaphore 0x10000084   Data           8  usbd_config_0.o(.data)
    os_semaphore_cb_usbd0_driver_ep1in_semaphore 0x1000008c   Data           8  usbd_config_0.o(.data)
    os_semaphore_cb_usbd0_driver_ep2out_semaphore 0x10000094   Data           8  usbd_config_0.o(.data)
    os_semaphore_cb_usbd0_driver_ep2in_semaphore 0x1000009c   Data           8  usbd_config_0.o(.data)
    usbd_ep_thread_id_ptr                    0x100000a4   Data          12  usbd_config_0.o(.data)
    usbd0_desc                               0x100000b0   Data          48  usbd_config_0.o(.data)
    usbd_desc_ptr                            0x100000e0   Data           4  usbd_config_0.o(.data)
    usbd0_alt_setting                        0x100000e4   Data           2  usbd_config_0.o(.data)
    usbd_core_thread_id                      0x100000e8   Data           4  usbd_config_0.o(.data)
    usbd_driver_semaphore_id                 0x100000ec   Data           4  usbd_config_0.o(.data)
    usbd_cdc_int_thread_id                   0x100000f0   Data           4  usbd_config_0.o(.data)
    usbd_cdc_bulk_thread_id                  0x100000f4   Data           4  usbd_config_0.o(.data)
    usbd_drv_version                         0x100000f8   Data           4  usbd_config_0.o(.data)
    usbd_capabilities                        0x100000fc   Data           4  usbd_config_0.o(.data)
    os_initialized                           0x10000100   Data           1  rt_cmsis.o(.data)
    os_running                               0x10000101   Data           1  rt_cmsis.o(.data)
    os_timer_head                            0x10000104   Data           4  rt_cmsis.o(.data)
    os_tsk                                   0x10000108   Data           8  rt_task.o(.data)
    os_tick_irqn                             0x1000013c   Data           4  rt_system.o(.data)
    os_time                                  0x10000140   Data           4  rt_time.o(.data)
    os_robin                                 0x10000144   Data           8  rt_robin.o(.data)
    dbg_msg                                  0x1000014c   Data           1  hal_cm.o(.data)
    buffer                                   0x10000150   Data         800  virtualcom.o(.bss)
    b                                        0x10000470   Data         802  virtualcom.o(.bss)
    os_messageQ_q_osTimerMessageQ            0x10000b94   Data          32  rtx_conf_cm.o(.bss)
    mp_tcb                                   0x10000bb4   Data         480  rtx_conf_cm.o(.bss)
    mp_stk                                   0x10000d98   Data        1296  rtx_conf_cm.o(.bss)
    os_stack_mem                             0x100012a8   Data        2816  rtx_conf_cm.o(.bss)
    os_fifo                                  0x10001da8   Data         132  rtx_conf_cm.o(.bss)
    os_active_TCB                            0x10001e2c   Data          36  rtx_conf_cm.o(.bss)
    usbd0_ep0_buf                            0x100021cc   Data          64  usbd_config_0.o(.bss)
    usbd0_data                               0x1000220c   Data         176  usbd_config_0.o(.bss)
    usbd_driver_ep_semaphore_id              0x100022bc   Data          24  usbd_config_0.o(.bss)
    usbd_cdc0_send_buf                       0x100022d4   Data        1024  usbd_config_0.o(.bss)
    usbd_cdc0_receive_buf                    0x100026d4   Data        2048  usbd_config_0.o(.bss)
    usbd_cdc0_notify_buf                     0x10002ed4   Data          10  usbd_config_0.o(.bss)
    usbd_cdc0_send_mps_buf                   0x10002ee0   Data         512  usbd_config_0.o(.bss)
    usbd_cdc0_receive_mps_buf                0x100030e0   Data         512  usbd_config_0.o(.bss)
    usbd_cdc_data                            0x100032e0   Data         132  usbd_config_0.o(.bss)
    os_idle_TCB                              0x10003388   Data          52  rt_task.o(.bss)
    os_rdy                                   0x100033bc   Data          24  rt_list.o(.bss)
    os_dly                                   0x100033d4   Data          24  rt_list.o(.bss)
    __libspace_start                         0x100033ec   Data          96  libspace.o(.bss)
    __temporary_stack_top$libspace           0x1000344c   Data           0  libspace.o(.bss)



==============================================================================

Memory Map of the image

  Image Entry point : 0x000000cd

  Load Region LR_IROM1 (Base: 0x00000000, Size: 0x000075bc, Max: 0x00080000, ABSOLUTE, COMPRESSED[0x000074ac])

    Execution Region ER_IROM1 (Exec base: 0x00000000, Load base: 0x00000000, Size: 0x0000746c, Max: 0x00080000, ABSOLUTE)

    Exec Addr    Load Addr    Size         Type   Attr      Idx    E Section Name        Object

    0x00000000   0x00000000   0x000000cc   Data   RO         1338    RESET               startup_lpc17xx.o
    0x000000cc   0x000000cc   0x00000008   Code   RO         3585  * !!!main             c_w.l(__main.o)
    0x000000d4   0x000000d4   0x00000034   Code   RO         3749    !!!scatter          c_w.l(__scatter.o)
    0x00000108   0x00000108   0x0000003a   Code   RO         3747    !!dczerorl          c_w.l(__dczerorl.o)
    0x00000142   0x00000142   0x00000002   PAD
    0x00000144   0x00000144   0x0000001c   Code   RO         3751    !!handler_zi        c_w.l(__scatter_zi.o)
    0x00000160   0x00000160   0x00000002   Code   RO         3634    .ARM.Collect$$libinit$$00000000  c_w.l(libinit.o)
    0x00000162   0x00000162   0x00000000   Code   RO         3646    .ARM.Collect$$libinit$$00000002  c_w.l(libinit2.o)
    0x00000162   0x00000162   0x00000000   Code   RO         3648    .ARM.Collect$$libinit$$00000004  c_w.l(libinit2.o)
    0x00000162   0x00000162   0x00000000   Code   RO         3651    .ARM.Collect$$libinit$$0000000A  c_w.l(libinit2.o)
    0x00000162   0x00000162   0x00000000   Code   RO         3653    .ARM.Collect$$libinit$$0000000C  c_w.l(libinit2.o)
    0x00000162   0x00000162   0x00000000   Code   RO         3655    .ARM.Collect$$libinit$$0000000E  c_w.l(libinit2.o)
    0x00000162   0x00000162   0x00000000   Code   RO         3658    .ARM.Collect$$libinit$$00000011  c_w.l(libinit2.o)
    0x00000162   0x00000162   0x00000000   Code   RO         3660    .ARM.Collect$$libinit$$00000013  c_w.l(libinit2.o)
    0x00000162   0x00000162   0x00000000   Code   RO         3662    .ARM.Collect$$libinit$$00000015  c_w.l(libinit2.o)
    0x00000162   0x00000162   0x00000000   Code   RO         3664    .ARM.Collect$$libinit$$00000017  c_w.l(libinit2.o)
    0x00000162   0x00000162   0x00000000   Code   RO         3666    .ARM.Collect$$libinit$$00000019  c_w.l(libinit2.o)
    0x00000162   0x00000162   0x00000000   Code   RO         3668    .ARM.Collect$$libinit$$0000001B  c_w.l(libinit2.o)
    0x00000162   0x00000162   0x00000000   Code   RO         3670    .ARM.Collect$$libinit$$0000001D  c_w.l(libinit2.o)
    0x00000162   0x00000162   0x00000000   Code   RO         3672    .ARM.Collect$$libinit$$0000001F  c_w.l(libinit2.o)
    0x00000162   0x00000162   0x00000000   Code   RO         3674    .ARM.Collect$$libinit$$00000021  c_w.l(libinit2.o)
    0x00000162   0x00000162   0x00000000   Code   RO         3676    .ARM.Collect$$libinit$$00000023  c_w.l(libinit2.o)
    0x00000162   0x00000162   0x00000000   Code   RO         3678    .ARM.Collect$$libinit$$00000025  c_w.l(libinit2.o)
    0x00000162   0x00000162   0x00000000   Code   RO         3682    .ARM.Collect$$libinit$$0000002C  c_w.l(libinit2.o)
    0x00000162   0x00000162   0x00000000   Code   RO         3684    .ARM.Collect$$libinit$$0000002E  c_w.l(libinit2.o)
    0x00000162   0x00000162   0x00000000   Code   RO         3686    .ARM.Collect$$libinit$$00000030  c_w.l(libinit2.o)
    0x00000162   0x00000162   0x00000000   Code   RO         3688    .ARM.Collect$$libinit$$00000032  c_w.l(libinit2.o)
    0x00000162   0x00000162   0x00000002   Code   RO         3689    .ARM.Collect$$libinit$$00000033  c_w.l(libinit2.o)
    0x00000164   0x00000164   0x00000002   Code   RO         3635    .ARM.Collect$$libshutdown$$00000000  c_w.l(libshutdown.o)
    0x00000166   0x00000166   0x00000000   Code   RO         3691    .ARM.Collect$$libshutdown$$00000002  c_w.l(libshutdown2.o)
    0x00000166   0x00000166   0x00000000   Code   RO         3693    .ARM.Collect$$libshutdown$$00000004  c_w.l(libshutdown2.o)
    0x00000166   0x00000166   0x00000000   Code   RO         3696    .ARM.Collect$$libshutdown$$00000007  c_w.l(libshutdown2.o)
    0x00000166   0x00000166   0x00000000   Code   RO         3699    .ARM.Collect$$libshutdown$$0000000A  c_w.l(libshutdown2.o)
    0x00000166   0x00000166   0x00000000   Code   RO         3701    .ARM.Collect$$libshutdown$$0000000C  c_w.l(libshutdown2.o)
    0x00000166   0x00000166   0x00000000   Code   RO         3704    .ARM.Collect$$libshutdown$$0000000F  c_w.l(libshutdown2.o)
    0x00000166   0x00000166   0x00000002   Code   RO         3705    .ARM.Collect$$libshutdown$$00000010  c_w.l(libshutdown2.o)
    0x00000168   0x00000168   0x00000000   Code   RO         3587    .ARM.Collect$$rtentry$$00000000  c_w.l(__rtentry.o)
    0x00000168   0x00000168   0x00000000   Code   RO         3597    .ARM.Collect$$rtentry$$00000002  c_w.l(__rtentry2.o)
    0x00000168   0x00000168   0x00000006   Code   RO         3609    .ARM.Collect$$rtentry$$00000004  c_w.l(__rtentry4.o)
    0x0000016e   0x0000016e   0x00000000   Code   RO         3599    .ARM.Collect$$rtentry$$00000009  c_w.l(__rtentry2.o)
    0x0000016e   0x0000016e   0x00000004   Code   RO         3600    .ARM.Collect$$rtentry$$0000000A  c_w.l(__rtentry2.o)
    0x00000172   0x00000172   0x00000008   Code   RO         3601    .ARM.Collect$$rtentry$$0000000B  c_w.l(__rtentry2.o)
    0x0000017a   0x0000017a   0x00000008   Code   RO         3603    .ARM.Collect$$rtentry$$0000000D  c_w.l(__rtentry2.o)
    0x00000182   0x00000182   0x00000002   Code   RO         3588    .ARM.Collect$$rtexit$$00000000  c_w.l(rtexit.o)
    0x00000184   0x00000184   0x00000000   Code   RO         3612    .ARM.Collect$$rtexit$$00000002  c_w.l(rtexit2.o)
    0x00000184   0x00000184   0x00000004   Code   RO         3613    .ARM.Collect$$rtexit$$00000003  c_w.l(rtexit2.o)
    0x00000188   0x00000188   0x00000006   Code   RO         3614    .ARM.Collect$$rtexit$$00000004  c_w.l(rtexit2.o)
    0x0000018e   0x0000018e   0x00000002   PAD
    0x00000190   0x00000190   0x0000001c   Code   RO          488    .emb_text           rtx_conf_cm.o
    0x000001ac   0x000001ac   0x00000130   Code   RO         3504    .emb_text           RTX_CM3.lib(hal_cm3.o)
    0x000002dc   0x000002dc   0x00000008   Code   RO         3568    .text               c_w.l(libspace.o)
    0x000002e4   0x000002e4   0x00000012   Code   RO         3573    .text               c_w.l(exit.o)
    0x000002f6   0x000002f6   0x00000006   Code   RO         3583    .text               c_w.l(heapauxi.o)
    0x000002fc   0x000002fc   0x00000004   Code   RO         1339    .ARM.__at_0x02FC    startup_lpc17xx.o
    0x00000300   0x00000300   0x0000003c   Code   RO         1340    .text               startup_lpc17xx.o
    0x0000033c   0x0000033c   0x000000ee   Code   RO         3571    .text               c_w.l(lludivv7m.o)
    0x0000042a   0x0000042a   0x0000008a   Code   RO         3577    .text               c_w.l(rt_memcpy_v6.o)
    0x000004b4   0x000004b4   0x00000044   Code   RO         3579    .text               c_w.l(rt_memclr.o)
    0x000004f8   0x000004f8   0x0000004e   Code   RO         3581    .text               c_w.l(rt_memclr_w.o)
    0x00000546   0x00000546   0x00000064   Code   RO         3594    .text               c_w.l(rt_memcpy_w.o)
    0x000005aa   0x000005aa   0x00000002   PAD
    0x000005ac   0x000005ac   0x0000000c   Code   RO         3620    .text               c_w.l(sys_exit.o)
    0x000005b8   0x000005b8   0x0000004a   Code   RO         3622    .text               c_w.l(sys_stackheap_outer.o)
    0x00000602   0x00000602   0x00000002   Code   RO         3636    .text               c_w.l(use_no_semi.o)
    0x00000604   0x00000604   0x00000000   Code   RO         3638    .text               c_w.l(indicate_semi.o)
    0x00000604   0x00000604   0x00000004   Code   RO         3563    SVC_TABLE           RTX_CM3.lib(svc_table.o)
    0x00000608   0x00000608   0x00000044   Code   RO            4    i.ADC_IRQHandler    virtualcom.o
    0x0000064c   0x0000064c   0x00000068   Code   RO          160    i.CDC0_ACM_UART_to_USB_Thread  usbd_user_cdc_acm_uart_0.o
    0x000006b4   0x000006b4   0x00000024   Code   RO            5    i.CDC0_ACM_UART_to_USB_Threadm  virtualcom.o
    0x000006d8   0x000006d8   0x0000001c   Code   RO         1159    i.Clear_Channel_active_flag  gpdma_lpc17xx.o
    0x000006f4   0x000006f4   0x000000e8   Code   RO         1160    i.DMA_IRQHandler    gpdma_lpc17xx.o
    0x000007dc   0x000007dc   0x000000c8   Code   RO         1161    i.GPDMA_ChannelConfigure  gpdma_lpc17xx.o
    0x000008a4   0x000008a4   0x0000002c   Code   RO         1162    i.GPDMA_ChannelDisable  gpdma_lpc17xx.o
    0x000008d0   0x000008d0   0x00000030   Code   RO         1164    i.GPDMA_ChannelGetCount  gpdma_lpc17xx.o
    0x00000900   0x00000900   0x00000074   Code   RO         1166    i.GPDMA_Initialize  gpdma_lpc17xx.o
    0x00000974   0x00000974   0x00000034   Code   RO         1167    i.GPDMA_PeripheralSelect  gpdma_lpc17xx.o
    0x000009a8   0x000009a8   0x00000048   Code   RO         1168    i.GPDMA_Uninitialize  gpdma_lpc17xx.o
    0x000009f0   0x000009f0   0x0000003c   Code   RO          800    i.GetUsartClockFreq  uart_lpc17xx.o
    0x00000a2c   0x00000a2c   0x00000068   Code   RO         1303    i.PIN_Configure     pin_lpc17xx.o
    0x00000a94   0x00000a94   0x0000002c   Code   RO          987    i.SIE_EP_WrCmd      usbd_lpc17xx.o
    0x00000ac0   0x00000ac0   0x00000020   Code   RO          988    i.SIE_RdCmdData     usbd_lpc17xx.o
    0x00000ae0   0x00000ae0   0x0000001c   Code   RO          989    i.SIE_WrCmd         usbd_lpc17xx.o
    0x00000afc   0x00000afc   0x0000002c   Code   RO          990    i.SIE_WrCmdData     usbd_lpc17xx.o
    0x00000b28   0x00000b28   0x0000000c   Code   RO          623    i.SSP1_GPDMA_Rx_SignalEvent  ssp_lpc17xx.o
    0x00000b34   0x00000b34   0x0000000c   Code   RO          624    i.SSP1_GPDMA_Tx_SignalEvent  ssp_lpc17xx.o
    0x00000b40   0x00000b40   0x0000000c   Code   RO          627    i.SSP1_IRQHandler   ssp_lpc17xx.o
    0x00000b4c   0x00000b4c   0x0000001e   Code   RO          637    i.SSPx_GPDMA_Rx_SignalEvent  ssp_lpc17xx.o
    0x00000b6a   0x00000b6a   0x0000000c   Code   RO          638    i.SSPx_GPDMA_Tx_SignalEvent  ssp_lpc17xx.o
    0x00000b76   0x00000b76   0x000000ce   Code   RO          639    i.SSPx_IRQHandler   ssp_lpc17xx.o
    0x00000c44   0x00000c44   0x0000002c   Code   RO         1169    i.Set_Channel_active_flag  gpdma_lpc17xx.o
    0x00000c70   0x00000c70   0x000000d4   Code   RO         1350    i.SystemInit        system_lpc17xx.o
    0x00000d44   0x00000d44   0x00000020   Code   RO            6    i.TIMER0_IRQHandler  virtualcom.o
    0x00000d64   0x00000d64   0x0000000c   Code   RO          801    i.UART1_IRQHandler  uart_lpc17xx.o
    0x00000d70   0x00000d70   0x00000050   Code   RO          161    i.UART_Callback     usbd_user_cdc_acm_uart_0.o
    0x00000dc0   0x00000dc0   0x0000000c   Code   RO          802    i.USART1_Control    uart_lpc17xx.o
    0x00000dcc   0x00000dcc   0x00000064   Code   RO          803    i.USART1_GPDMA_Rx_Event  uart_lpc17xx.o
    0x00000e30   0x00000e30   0x00000038   Code   RO          804    i.USART1_GPDMA_Tx_Event  uart_lpc17xx.o
    0x00000e68   0x00000e68   0x0000000c   Code   RO          805    i.USART1_GetCapabilities  uart_lpc17xx.o
    0x00000e74   0x00000e74   0x0000000c   Code   RO          806    i.USART1_GetModemStatus  uart_lpc17xx.o
    0x00000e80   0x00000e80   0x00000018   Code   RO          807    i.USART1_GetRxCount  uart_lpc17xx.o
    0x00000e98   0x00000e98   0x0000000c   Code   RO          808    i.USART1_GetStatus  uart_lpc17xx.o
    0x00000ea4   0x00000ea4   0x00000018   Code   RO          809    i.USART1_GetTxCount  uart_lpc17xx.o
    0x00000ebc   0x00000ebc   0x0000000c   Code   RO          810    i.USART1_Initialize  uart_lpc17xx.o
    0x00000ec8   0x00000ec8   0x0000000c   Code   RO          811    i.USART1_PowerControl  uart_lpc17xx.o
    0x00000ed4   0x00000ed4   0x0000000c   Code   RO          812    i.USART1_Receive    uart_lpc17xx.o
    0x00000ee0   0x00000ee0   0x0000000c   Code   RO          813    i.USART1_Send       uart_lpc17xx.o
    0x00000eec   0x00000eec   0x0000000c   Code   RO          814    i.USART1_SetModemControl  uart_lpc17xx.o
    0x00000ef8   0x00000ef8   0x00000058   Code   RO          815    i.USART1_Transfer   uart_lpc17xx.o
    0x00000f50   0x00000f50   0x0000000c   Code   RO          816    i.USART1_Uninitialize  uart_lpc17xx.o
    0x00000f5c   0x00000f5c   0x000004e8   Code   RO          817    i.USART_Control     uart_lpc17xx.o
    0x00001444   0x00001444   0x000000b8   Code   RO          818    i.USART_GetModemStatus  uart_lpc17xx.o
    0x000014fc   0x000014fc   0x0000008e   Code   RO          819    i.USART_GetStatus   uart_lpc17xx.o
    0x0000158a   0x0000158a   0x00000002   PAD
    0x0000158c   0x0000158c   0x000001da   Code   RO          820    i.USART_IRQHandler  uart_lpc17xx.o
    0x00001766   0x00001766   0x000000dc   Code   RO          821    i.USART_Initialize  uart_lpc17xx.o
    0x00001842   0x00001842   0x000001e8   Code   RO          822    i.USART_PowerControl  uart_lpc17xx.o
    0x00001a2a   0x00001a2a   0x000000e2   Code   RO          823    i.USART_Receive     uart_lpc17xx.o
    0x00001b0c   0x00001b0c   0x00000056   Code   RO          824    i.USART_RxLineIntHandler  uart_lpc17xx.o
    0x00001b62   0x00001b62   0x00000136   Code   RO          825    i.USART_Send        uart_lpc17xx.o
    0x00001c98   0x00001c98   0x000000d0   Code   RO          826    i.USART_SetBaudrate  uart_lpc17xx.o
    0x00001d68   0x00001d68   0x00000068   Code   RO          827    i.USART_SetModemControl  uart_lpc17xx.o
    0x00001dd0   0x00001dd0   0x000000c4   Code   RO          828    i.USART_Uninitialize  uart_lpc17xx.o
    0x00001e94   0x00001e94   0x0000000c   Code   RO          829    i.USARTx_GetVersion  uart_lpc17xx.o
    0x00001ea0   0x00001ea0   0x00000006   Code   RO         2774    i.USBD0_Core_Thread  USB_CM3_L.lib(usbd_lib_core.o)
    0x00001ea6   0x00001ea6   0x00000008   Code   RO         1385    i.USBD0_SignalDeviceEvent  usbd_config_0.o
    0x00001eae   0x00001eae   0x0000000a   Code   RO         1386    i.USBD0_SignalEndpointEvent  usbd_config_0.o
    0x00001eb8   0x00001eb8   0x00000030   Code   RO          162    i.USBD_CDC0_ACM_DataReceived  usbd_user_cdc_acm_uart_0.o
    0x00001ee8   0x00001ee8   0x00000002   Code   RO         1388    i.USBD_CDC0_ACM_DataSent  usbd_config_0.o
    0x00001eea   0x00001eea   0x00000002   PAD
    0x00001eec   0x00001eec   0x00000018   Code   RO          163    i.USBD_CDC0_ACM_GetLineCoding  usbd_user_cdc_acm_uart_0.o
    0x00001f04   0x00001f04   0x00000030   Code   RO          164    i.USBD_CDC0_ACM_Initialize  usbd_user_cdc_acm_uart_0.o
    0x00001f34   0x00001f34   0x0000001c   Code   RO          165    i.USBD_CDC0_ACM_Reset  usbd_user_cdc_acm_uart_0.o
    0x00001f50   0x00001f50   0x00000004   Code   RO          166    i.USBD_CDC0_ACM_SetControlLineState  usbd_user_cdc_acm_uart_0.o
    0x00001f54   0x00001f54   0x000000e4   Code   RO          167    i.USBD_CDC0_ACM_SetLineCoding  usbd_user_cdc_acm_uart_0.o
    0x00002038   0x00002038   0x00000006   Code   RO         2910    i.USBD_CDC0_Bulk_Thread  USB_CM3_L.lib(usbd_lib_cdc.o)
    0x0000203e   0x0000203e   0x00000006   Code   RO         2911    i.USBD_CDC0_Int_Thread  USB_CM3_L.lib(usbd_lib_cdc.o)
    0x00002044   0x00002044   0x00000004   Code   RO         1395    i.USBD_CDC0_NCM_GetCrcMode  usbd_config_0.o
    0x00002048   0x00002048   0x00000004   Code   RO         1396    i.USBD_CDC0_NCM_GetEthernetPowerManagementPatternFilter  usbd_config_0.o
    0x0000204c   0x0000204c   0x00000004   Code   RO         1397    i.USBD_CDC0_NCM_GetEthernetStatistic  usbd_config_0.o
    0x00002050   0x00002050   0x00000004   Code   RO         1398    i.USBD_CDC0_NCM_GetMaxDatagramSize  usbd_config_0.o
    0x00002054   0x00002054   0x00000004   Code   RO         1399    i.USBD_CDC0_NCM_GetNetAddress  usbd_config_0.o
    0x00002058   0x00002058   0x00000004   Code   RO         1400    i.USBD_CDC0_NCM_GetNtbFormat  usbd_config_0.o
    0x0000205c   0x0000205c   0x00000004   Code   RO         1401    i.USBD_CDC0_NCM_GetNtbInputSize  usbd_config_0.o
    0x00002060   0x00002060   0x00000004   Code   RO         1402    i.USBD_CDC0_NCM_GetNtbParameters  usbd_config_0.o
    0x00002064   0x00002064   0x00000002   Code   RO         1403    i.USBD_CDC0_NCM_Initialize  usbd_config_0.o
    0x00002066   0x00002066   0x00000002   Code   RO         1404    i.USBD_CDC0_NCM_NTB_IN_Sent  usbd_config_0.o
    0x00002068   0x00002068   0x00000002   Code   RO         1405    i.USBD_CDC0_NCM_NTB_OUT_Received  usbd_config_0.o
    0x0000206a   0x0000206a   0x00000002   Code   RO         1406    i.USBD_CDC0_NCM_Reset  usbd_config_0.o
    0x0000206c   0x0000206c   0x00000004   Code   RO         1407    i.USBD_CDC0_NCM_SetCrcMode  usbd_config_0.o
    0x00002070   0x00002070   0x00000004   Code   RO         1408    i.USBD_CDC0_NCM_SetEthernetMulticastFilters  usbd_config_0.o
    0x00002074   0x00002074   0x00000004   Code   RO         1409    i.USBD_CDC0_NCM_SetEthernetPacketFilter  usbd_config_0.o
    0x00002078   0x00002078   0x00000004   Code   RO         1410    i.USBD_CDC0_NCM_SetEthernetPowerManagementPatternFilter  usbd_config_0.o
    0x0000207c   0x0000207c   0x00000004   Code   RO         1411    i.USBD_CDC0_NCM_SetMaxDatagramSize  usbd_config_0.o
    0x00002080   0x00002080   0x00000004   Code   RO         1412    i.USBD_CDC0_NCM_SetNetAddress  usbd_config_0.o
    0x00002084   0x00002084   0x00000004   Code   RO         1413    i.USBD_CDC0_NCM_SetNtbFormat  usbd_config_0.o
    0x00002088   0x00002088   0x00000004   Code   RO         1414    i.USBD_CDC0_NCM_SetNtbInputSize  usbd_config_0.o
    0x0000208c   0x0000208c   0x00000002   Code   RO         1415    i.USBD_CDC0_NCM_Start  usbd_config_0.o
    0x0000208e   0x0000208e   0x00000002   Code   RO         1416    i.USBD_CDC0_NCM_Stop  usbd_config_0.o
    0x00002090   0x00002090   0x00000004   Code   RO         2918    i.USBD_CDC_ACM_CoreClearCommFeature  USB_CM3_L.lib(usbd_lib_cdc.o)
    0x00002094   0x00002094   0x00000004   Code   RO         2919    i.USBD_CDC_ACM_CoreGetCommFeature  USB_CM3_L.lib(usbd_lib_cdc.o)
    0x00002098   0x00002098   0x00000004   Code   RO         2920    i.USBD_CDC_ACM_CoreGetEncapsulatedResponse  USB_CM3_L.lib(usbd_lib_cdc.o)
    0x0000209c   0x0000209c   0x00000054   Code   RO         2921    i.USBD_CDC_ACM_CoreGetLineCoding  USB_CM3_L.lib(usbd_lib_cdc.o)
    0x000020f0   0x000020f0   0x00000004   Code   RO         2922    i.USBD_CDC_ACM_CoreSendBreak  USB_CM3_L.lib(usbd_lib_cdc.o)
    0x000020f4   0x000020f4   0x00000004   Code   RO         2923    i.USBD_CDC_ACM_CoreSendEncapsulatedCommand  USB_CM3_L.lib(usbd_lib_cdc.o)
    0x000020f8   0x000020f8   0x00000004   Code   RO         2924    i.USBD_CDC_ACM_CoreSetCommFeature  USB_CM3_L.lib(usbd_lib_cdc.o)
    0x000020fc   0x000020fc   0x00000034   Code   RO         2925    i.USBD_CDC_ACM_CoreSetControlLineState  USB_CM3_L.lib(usbd_lib_cdc.o)
    0x00002130   0x00002130   0x00000050   Code   RO         2926    i.USBD_CDC_ACM_CoreSetLineCoding  USB_CM3_L.lib(usbd_lib_cdc.o)
    0x00002180   0x00002180   0x000000cc   Code   RO         2931    i.USBD_CDC_ACM_ReadData  USB_CM3_L.lib(usbd_lib_cdc.o)
    0x0000224c   0x0000224c   0x000000ac   Code   RO         2932    i.USBD_CDC_ACM_WriteData  USB_CM3_L.lib(usbd_lib_cdc.o)
    0x000022f8   0x000022f8   0x00000034   Code   RO         2933    i.USBD_CDC_Bulk_Thread  USB_CM3_L.lib(usbd_lib_cdc.o)
    0x0000232c   0x0000232c   0x00000048   Code   RO         2934    i.USBD_CDC_CheckInstance  USB_CM3_L.lib(usbd_lib_cdc.o)
    0x00002374   0x00002374   0x00000090   Code   RO         2935    i.USBD_CDC_EndpointStart  USB_CM3_L.lib(usbd_lib_cdc.o)
    0x00002404   0x00002404   0x00000050   Code   RO         2936    i.USBD_CDC_EndpointStop  USB_CM3_L.lib(usbd_lib_cdc.o)
    0x00002454   0x00002454   0x000001c4   Code   RO         2937    i.USBD_CDC_EpBulkIn  USB_CM3_L.lib(usbd_lib_cdc.o)
    0x00002618   0x00002618   0x00000188   Code   RO         2938    i.USBD_CDC_EpBulkOut  USB_CM3_L.lib(usbd_lib_cdc.o)
    0x000027a0   0x000027a0   0x00000070   Code   RO         2939    i.USBD_CDC_Initialize  USB_CM3_L.lib(usbd_lib_cdc.o)
    0x00002810   0x00002810   0x00000078   Code   RO         2940    i.USBD_CDC_Int_Thread  USB_CM3_L.lib(usbd_lib_cdc.o)
    0x00002888   0x00002888   0x00000024   Code   RO         2941    i.USBD_CDC_NCM_CoreGetCrcMode  USB_CM3_L.lib(usbd_lib_cdc.o)
    0x000028ac   0x000028ac   0x0000002c   Code   RO         2942    i.USBD_CDC_NCM_CoreGetEthernetPowerManagementPatternFilter  USB_CM3_L.lib(usbd_lib_cdc.o)
    0x000028d8   0x000028d8   0x0000002c   Code   RO         2943    i.USBD_CDC_NCM_CoreGetEthernetStatistic  USB_CM3_L.lib(usbd_lib_cdc.o)
    0x00002904   0x00002904   0x00000024   Code   RO         2944    i.USBD_CDC_NCM_CoreGetMaxDatagramSize  USB_CM3_L.lib(usbd_lib_cdc.o)
    0x00002928   0x00002928   0x00000024   Code   RO         2945    i.USBD_CDC_NCM_CoreGetNetAddress  USB_CM3_L.lib(usbd_lib_cdc.o)
    0x0000294c   0x0000294c   0x00000024   Code   RO         2946    i.USBD_CDC_NCM_CoreGetNtbFormat  USB_CM3_L.lib(usbd_lib_cdc.o)
    0x00002970   0x00002970   0x00000024   Code   RO         2947    i.USBD_CDC_NCM_CoreGetNtbInputSize  USB_CM3_L.lib(usbd_lib_cdc.o)
    0x00002994   0x00002994   0x00000024   Code   RO         2948    i.USBD_CDC_NCM_CoreGetNtbParameters  USB_CM3_L.lib(usbd_lib_cdc.o)
    0x000029b8   0x000029b8   0x00000038   Code   RO         2949    i.USBD_CDC_NCM_CoreSetCrcMode  USB_CM3_L.lib(usbd_lib_cdc.o)
    0x000029f0   0x000029f0   0x0000002c   Code   RO         2950    i.USBD_CDC_NCM_CoreSetEthernetMulticastFilters  USB_CM3_L.lib(usbd_lib_cdc.o)
    0x00002a1c   0x00002a1c   0x00000024   Code   RO         2951    i.USBD_CDC_NCM_CoreSetEthernetPacketFilter  USB_CM3_L.lib(usbd_lib_cdc.o)
    0x00002a40   0x00002a40   0x00000030   Code   RO         2952    i.USBD_CDC_NCM_CoreSetEthernetPowerManagementPatternFilter  USB_CM3_L.lib(usbd_lib_cdc.o)
    0x00002a70   0x00002a70   0x00000034   Code   RO         2953    i.USBD_CDC_NCM_CoreSetMaxDatagramSize  USB_CM3_L.lib(usbd_lib_cdc.o)
    0x00002aa4   0x00002aa4   0x00000024   Code   RO         2954    i.USBD_CDC_NCM_CoreSetNetAddress  USB_CM3_L.lib(usbd_lib_cdc.o)
    0x00002ac8   0x00002ac8   0x00000038   Code   RO         2955    i.USBD_CDC_NCM_CoreSetNtbFormat  USB_CM3_L.lib(usbd_lib_cdc.o)
    0x00002b00   0x00002b00   0x00000034   Code   RO         2956    i.USBD_CDC_NCM_CoreSetNtbInputSize  USB_CM3_L.lib(usbd_lib_cdc.o)
    0x00002b34   0x00002b34   0x000000cc   Code   RO         2972    i.USBD_CDC_Reset    USB_CM3_L.lib(usbd_lib_cdc.o)
    0x00002c00   0x00002c00   0x00000028   Code   RO         2778    i.USBD_CheckDevice  USB_CM3_L.lib(usbd_lib_core.o)
    0x00002c28   0x00002c28   0x00000038   Code   RO         1418    i.USBD_ClassInitialize  usbd_config_0.o
    0x00002c60   0x00002c60   0x00000004   Code   RO         1420    i.USBD_Class_Endpoint0_InDataSent  usbd_config_0.o
    0x00002c64   0x00002c64   0x00000004   Code   RO         1421    i.USBD_Class_Endpoint0_OutDataReceived  usbd_config_0.o
    0x00002c68   0x00002c68   0x00000002   Code   RO         1422    i.USBD_Class_Endpoint0_SetupPacketProcessed  usbd_config_0.o
    0x00002c6a   0x00002c6a   0x00000004   Code   RO         1423    i.USBD_Class_Endpoint0_SetupPacketReceived  usbd_config_0.o
    0x00002c6e   0x00002c6e   0x00000018   Code   RO         2780    i.USBD_Connect      USB_CM3_L.lib(usbd_lib_core.o)
    0x00002c86   0x00002c86   0x00000002   PAD
    0x00002c88   0x00002c88   0x000000d8   Code   RO         2781    i.USBD_Core         USB_CM3_L.lib(usbd_lib_core.o)
    0x00002d60   0x00002d60   0x00000044   Code   RO         3530    i.USBD_Core_Endpoint0_InDataSent  USB_CM3_L.lib(usbd_lib_core_device.o)
    0x00002da4   0x00002da4   0x00000044   Code   RO         3531    i.USBD_Core_Endpoint0_OutDataReceived  USB_CM3_L.lib(usbd_lib_core_device.o)
    0x00002de8   0x00002de8   0x0000003c   Code   RO         3532    i.USBD_Core_Endpoint0_SetupPacketProcessed  USB_CM3_L.lib(usbd_lib_core_device.o)
    0x00002e24   0x00002e24   0x00000050   Code   RO         3533    i.USBD_Core_Endpoint0_SetupPacketReceived  USB_CM3_L.lib(usbd_lib_core_device.o)
    0x00002e74   0x00002e74   0x00000094   Code   RO         2782    i.USBD_Core_Thread  USB_CM3_L.lib(usbd_lib_core.o)
    0x00002f08   0x00002f08   0x00000050   Code   RO         2783    i.USBD_DataInStage  USB_CM3_L.lib(usbd_lib_core.o)
    0x00002f58   0x00002f58   0x0000002c   Code   RO         2784    i.USBD_DataOutStage  USB_CM3_L.lib(usbd_lib_core.o)
    0x00002f84   0x00002f84   0x0000000a   Code   RO         1424    i.USBD_Delay        usbd_config_0.o
    0x00002f8e   0x00002f8e   0x00000002   Code   RO         1425    i.USBD_Device0_ConfigurationChanged  usbd_config_0.o
    0x00002f90   0x00002f90   0x00000002   Code   RO         1426    i.USBD_Device0_DisableRemoteWakeup  usbd_config_0.o
    0x00002f92   0x00002f92   0x00000002   Code   RO         1427    i.USBD_Device0_EnableRemoteWakeup  usbd_config_0.o
    0x00002f94   0x00002f94   0x00000004   Code   RO         1428    i.USBD_Device0_Endpoint0_InDataSent  usbd_config_0.o
    0x00002f98   0x00002f98   0x00000004   Code   RO         1429    i.USBD_Device0_Endpoint0_OutDataReceived  usbd_config_0.o
    0x00002f9c   0x00002f9c   0x00000002   Code   RO         1430    i.USBD_Device0_Endpoint0_SetupPacketProcessed  usbd_config_0.o
    0x00002f9e   0x00002f9e   0x00000004   Code   RO         1431    i.USBD_Device0_Endpoint0_SetupPacketReceived  usbd_config_0.o
    0x00002fa2   0x00002fa2   0x00000002   Code   RO         1432    i.USBD_Device0_EventReset  usbd_config_0.o
    0x00002fa4   0x00002fa4   0x00000002   Code   RO         1433    i.USBD_Device0_HighSpeedActivated  usbd_config_0.o
    0x00002fa6   0x00002fa6   0x00000002   Code   RO         1434    i.USBD_Device0_Initialize  usbd_config_0.o
    0x00002fa8   0x00002fa8   0x00000008   Code   RO         1435    i.USBD_Device0_Reset  usbd_config_0.o
    0x00002fb0   0x00002fb0   0x00000002   Code   RO         1436    i.USBD_Device0_Resumed  usbd_config_0.o
    0x00002fb2   0x00002fb2   0x00000002   Code   RO         1437    i.USBD_Device0_Suspended  usbd_config_0.o
    0x00002fb4   0x00002fb4   0x00000002   Code   RO         1439    i.USBD_Device0_VbusChanged  usbd_config_0.o
    0x00002fb6   0x00002fb6   0x00000002   PAD
    0x00002fb8   0x00002fb8   0x00000058   Code   RO          991    i.USBD_DeviceConnect  usbd_lpc17xx.o
    0x00003010   0x00003010   0x00000058   Code   RO          992    i.USBD_DeviceDisconnect  usbd_lpc17xx.o
    0x00003068   0x00003068   0x00000028   Code   RO          993    i.USBD_DeviceGetState  usbd_lpc17xx.o
    0x00003090   0x00003090   0x0000006c   Code   RO          994    i.USBD_DeviceRemoteWakeup  usbd_lpc17xx.o
    0x000030fc   0x000030fc   0x0000007c   Code   RO          995    i.USBD_DeviceSetAddress  usbd_lpc17xx.o
    0x00003178   0x00003178   0x00000068   Code   RO         2857    i.USBD_DriverDeviceConnect  USB_CM3_L.lib(usbd_lib_drv.o)
    0x000031e0   0x000031e0   0x0000006c   Code   RO         2861    i.USBD_DriverDeviceSetAddress  USB_CM3_L.lib(usbd_lib_drv.o)
    0x0000324c   0x0000324c   0x000000b8   Code   RO         2862    i.USBD_DriverEndpointConfigure  USB_CM3_L.lib(usbd_lib_drv.o)
    0x00003304   0x00003304   0x000000b4   Code   RO         2863    i.USBD_DriverEndpointStall  USB_CM3_L.lib(usbd_lib_drv.o)
    0x000033b8   0x000033b8   0x000000e0   Code   RO         2864    i.USBD_DriverEndpointTransfer  USB_CM3_L.lib(usbd_lib_drv.o)
    0x00003498   0x00003498   0x000000b4   Code   RO         2865    i.USBD_DriverEndpointTransferAbort  USB_CM3_L.lib(usbd_lib_drv.o)
    0x0000354c   0x0000354c   0x00000074   Code   RO         2866    i.USBD_DriverEndpointTransferGetResult  USB_CM3_L.lib(usbd_lib_drv.o)
    0x000035c0   0x000035c0   0x000000b0   Code   RO         2867    i.USBD_DriverEndpointUnconfigure  USB_CM3_L.lib(usbd_lib_drv.o)
    0x00003670   0x00003670   0x00000010   Code   RO         2868    i.USBD_DriverGetCapabilities  USB_CM3_L.lib(usbd_lib_drv.o)
    0x00003680   0x00003680   0x00000010   Code   RO         2870    i.USBD_DriverGetVersion  USB_CM3_L.lib(usbd_lib_drv.o)
    0x00003690   0x00003690   0x00000070   Code   RO         2871    i.USBD_DriverInitialize  USB_CM3_L.lib(usbd_lib_drv.o)
    0x00003700   0x00003700   0x0000006c   Code   RO         2872    i.USBD_DriverPowerControl  USB_CM3_L.lib(usbd_lib_drv.o)
    0x0000376c   0x0000376c   0x0000006c   Code   RO         2873    i.USBD_DriverReadSetupPacket  USB_CM3_L.lib(usbd_lib_drv.o)
    0x000037d8   0x000037d8   0x00000374   Code   RO         2786    i.USBD_Endpoint0    USB_CM3_L.lib(usbd_lib_core.o)
    0x00003b4c   0x00003b4c   0x00000002   Code   RO         1440    i.USBD_Endpoint0_ClearFeatureStall_MSC  usbd_config_0.o
    0x00003b4e   0x00003b4e   0x00000004   Code   RO         1441    i.USBD_Endpoint0_Out_ADC_ReqToEP  usbd_config_0.o
    0x00003b52   0x00003b52   0x00000004   Code   RO         1442    i.USBD_Endpoint0_Out_ADC_ReqToIF  usbd_config_0.o
    0x00003b56   0x00003b56   0x00000002   PAD
    0x00003b58   0x00003b58   0x00000100   Code   RO         3550    i.USBD_Endpoint0_Out_CDC_ReqToIF  USB_CM3_L.lib(usbd_lib_core_cdc.o)
    0x00003c58   0x00003c58   0x00000004   Code   RO         1443    i.USBD_Endpoint0_Out_HID_ReqToIF  usbd_config_0.o
    0x00003c5c   0x00003c5c   0x00000004   Code   RO         1444    i.USBD_Endpoint0_ReqGetDescriptor_HID  usbd_config_0.o
    0x00003c60   0x00003c60   0x00000004   Code   RO         1445    i.USBD_Endpoint0_ReqGetExtProp_CC  usbd_config_0.o
    0x00003c64   0x00003c64   0x00000004   Code   RO         1446    i.USBD_Endpoint0_Setup_ADC_ReqToEP  usbd_config_0.o
    0x00003c68   0x00003c68   0x00000004   Code   RO         1447    i.USBD_Endpoint0_Setup_ADC_ReqToIF  usbd_config_0.o
    0x00003c6c   0x00003c6c   0x00000318   Code   RO         3551    i.USBD_Endpoint0_Setup_CDC_ReqToIF  USB_CM3_L.lib(usbd_lib_core_cdc.o)
    0x00003f84   0x00003f84   0x00000004   Code   RO         1448    i.USBD_Endpoint0_Setup_HID_ReqToIF  usbd_config_0.o
    0x00003f88   0x00003f88   0x00000004   Code   RO         1449    i.USBD_Endpoint0_Setup_MSC_ReqToIF  usbd_config_0.o
    0x00003f8c   0x00003f8c   0x00000134   Code   RO          996    i.USBD_EndpointConfigure  usbd_lpc17xx.o
    0x000040c0   0x000040c0   0x00000080   Code   RO          997    i.USBD_EndpointStall  usbd_lpc17xx.o
    0x00004140   0x00004140   0x0000004c   Code   RO         1450    i.USBD_EndpointStart  usbd_config_0.o
    0x0000418c   0x0000418c   0x0000004c   Code   RO         1451    i.USBD_EndpointStop  usbd_config_0.o
    0x000041d8   0x000041d8   0x000000c0   Code   RO          998    i.USBD_EndpointTransfer  usbd_lpc17xx.o
    0x00004298   0x00004298   0x0000008c   Code   RO          999    i.USBD_EndpointTransferAbort  usbd_lpc17xx.o
    0x00004324   0x00004324   0x00000024   Code   RO         1000    i.USBD_EndpointTransferGetResult  usbd_lpc17xx.o
    0x00004348   0x00004348   0x000000b0   Code   RO         1001    i.USBD_EndpointUnconfigure  usbd_lpc17xx.o
    0x000043f8   0x000043f8   0x0000000c   Code   RO         1002    i.USBD_GetCapabilities  usbd_lpc17xx.o
    0x00004404   0x00004404   0x00000064   Code   RO         1003    i.USBD_GetFrameNumber  usbd_lpc17xx.o
    0x00004468   0x00004468   0x0000000c   Code   RO         1004    i.USBD_GetVersion   usbd_lpc17xx.o
    0x00004474   0x00004474   0x00000084   Code   RO         1005    i.USBD_HW_ReadEP    usbd_lpc17xx.o
    0x000044f8   0x000044f8   0x00000074   Code   RO         1006    i.USBD_HW_WriteEP   usbd_lpc17xx.o
    0x0000456c   0x0000456c   0x00000310   Code   RO         1007    i.USBD_IRQ          usbd_lpc17xx.o
    0x0000487c   0x0000487c   0x00000040   Code   RO         1008    i.USBD_Initialize   usbd_lpc17xx.o
    0x000048bc   0x000048bc   0x00000118   Code   RO         2795    i.USBD_Initialize   USB_CM3_L.lib(usbd_lib_core.o)
    0x000049d4   0x000049d4   0x00000124   Code   RO         1009    i.USBD_PowerControl  usbd_lpc17xx.o
    0x00004af8   0x00004af8   0x00000060   Code   RO         1010    i.USBD_ReadSetupPacket  usbd_lpc17xx.o
    0x00004b58   0x00004b58   0x00000194   Code   RO         2796    i.USBD_ReqGetDescriptor  USB_CM3_L.lib(usbd_lib_core.o)
    0x00004cec   0x00004cec   0x000000b4   Code   RO         2797    i.USBD_ReqGetMSDescriptor  USB_CM3_L.lib(usbd_lib_core.o)
    0x00004da0   0x00004da0   0x000000b4   Code   RO         2798    i.USBD_ReqGetStatus  USB_CM3_L.lib(usbd_lib_core.o)
    0x00004e54   0x00004e54   0x00000110   Code   RO         2799    i.USBD_ReqSetClrFeature  USB_CM3_L.lib(usbd_lib_core.o)
    0x00004f64   0x00004f64   0x00000268   Code   RO         2800    i.USBD_ReqSetConfiguration  USB_CM3_L.lib(usbd_lib_core.o)
    0x000051cc   0x000051cc   0x00000198   Code   RO         2801    i.USBD_ReqSetInterface  USB_CM3_L.lib(usbd_lib_core.o)
    0x00005364   0x00005364   0x0000002c   Code   RO         1452    i.USBD_Reset        usbd_config_0.o
    0x00005390   0x00005390   0x00000028   Code   RO         2802    i.USBD_ResetCore    USB_CM3_L.lib(usbd_lib_core.o)
    0x000053b8   0x000053b8   0x00000018   Code   RO         1453    i.USBD_SemaphoreAcquire  usbd_config_0.o
    0x000053d0   0x000053d0   0x0000002c   Code   RO         1454    i.USBD_SemaphoreCreate  usbd_config_0.o
    0x000053fc   0x000053fc   0x00000012   Code   RO         1456    i.USBD_SemaphoreRelease  usbd_config_0.o
    0x0000540e   0x0000540e   0x00000002   Code   RO         1457    i.USBD_SetConfiguration  usbd_config_0.o
    0x00005410   0x00005410   0x00000010   Code   RO         2875    i.USBD_SignalDeviceEvent  USB_CM3_L.lib(usbd_lib_drv.o)
    0x00005420   0x00005420   0x00000048   Code   RO         2876    i.USBD_SignalEndpointEvent  USB_CM3_L.lib(usbd_lib_drv.o)
    0x00005468   0x00005468   0x0000000a   Code   RO         2804    i.USBD_StatusInStage  USB_CM3_L.lib(usbd_lib_core.o)
    0x00005472   0x00005472   0x00000010   Code   RO         2805    i.USBD_StatusInStageDone  USB_CM3_L.lib(usbd_lib_core.o)
    0x00005482   0x00005482   0x0000000a   Code   RO         2806    i.USBD_StatusOutStage  USB_CM3_L.lib(usbd_lib_core.o)
    0x0000548c   0x0000548c   0x00000030   Code   RO         2807    i.USBD_StatusOutStageDone  USB_CM3_L.lib(usbd_lib_core.o)
    0x000054bc   0x000054bc   0x00000034   Code   RO         1458    i.USBD_ThreadCreate  usbd_config_0.o
    0x000054f0   0x000054f0   0x0000000c   Code   RO         1459    i.USBD_ThreadFlagsSet  usbd_config_0.o
    0x000054fc   0x000054fc   0x00000020   Code   RO         1460    i.USBD_ThreadFlagsWait  usbd_config_0.o
    0x0000551c   0x0000551c   0x00000024   Code   RO         1011    i.USBD_Uninitialize  usbd_lpc17xx.o
    0x00005540   0x00005540   0x00000004   Code   RO          575    i.USB_IRQHandler    otg_lpc17xx.o
    0x00005544   0x00005544   0x00000098   Code   RO          576    i.USB_PinsConfigure  otg_lpc17xx.o
    0x000055dc   0x000055dc   0x00000094   Code   RO          577    i.USB_PinsUnconfigure  otg_lpc17xx.o
    0x00005670   0x00005670   0x0000001a   Code   RO          830    i.__NVIC_ClearPendingIRQ  uart_lpc17xx.o
    0x0000568a   0x0000568a   0x0000001a   Code   RO         1170    i.__NVIC_ClearPendingIRQ  gpdma_lpc17xx.o
    0x000056a4   0x000056a4   0x00000022   Code   RO         1012    i.__NVIC_DisableIRQ  usbd_lpc17xx.o
    0x000056c6   0x000056c6   0x0000001a   Code   RO            7    i.__NVIC_EnableIRQ  virtualcom.o
    0x000056e0   0x000056e0   0x0000001a   Code   RO         1013    i.__NVIC_EnableIRQ  usbd_lpc17xx.o
    0x000056fa   0x000056fa   0x00000046   Code   RO         3403    i._init_box         RTX_CM3.lib(rt_membox.o)
    0x00005740   0x00005740   0x00000020   Code   RO          490    i._mutex_acquire    rtx_conf_cm.o
    0x00005760   0x00005760   0x0000001c   Code   RO          492    i._mutex_release    rtx_conf_cm.o
    0x0000577c   0x0000577c   0x0000001e   Code   RO         1014    i.check_and_set_var  usbd_lpc17xx.o
    0x0000579a   0x0000579a   0x00000002   PAD
    0x0000579c   0x0000579c   0x00000030   Code   RO         3456    i.dbg_init          RTX_CM3.lib(hal_cm.o)
    0x000057cc   0x000057cc   0x00000020   Code   RO         3457    i.dbg_task_notify   RTX_CM3.lib(hal_cm.o)
    0x000057ec   0x000057ec   0x00000010   Code   RO         3458    i.dbg_task_switch   RTX_CM3.lib(hal_cm.o)
    0x000057fc   0x000057fc   0x00000050   Code   RO            9    i.initADC           virtualcom.o
    0x0000584c   0x0000584c   0x00000038   Code   RO           10    i.initPWM           virtualcom.o
    0x00005884   0x00005884   0x0000001c   Code   RO           11    i.initTIM0          virtualcom.o
    0x000058a0   0x000058a0   0x0000002a   Code   RO         2034    i.isrMessageGet     RTX_CM3.lib(rt_cmsis.o)
    0x000058ca   0x000058ca   0x0000002c   Code   RO         2035    i.isrMessagePut     RTX_CM3.lib(rt_cmsis.o)
    0x000058f6   0x000058f6   0x00000028   Code   RO         2036    i.isrSemaphoreRelease  RTX_CM3.lib(rt_cmsis.o)
    0x0000591e   0x0000591e   0x00000024   Code   RO         2037    i.isrSignalSet      RTX_CM3.lib(rt_cmsis.o)
    0x00005942   0x00005942   0x00000002   PAD
    0x00005944   0x00005944   0x00000028   Code   RO         3140    i.isr_evt_set       RTX_CM3.lib(rt_event.o)
    0x0000596c   0x0000596c   0x00000056   Code   RO         3258    i.isr_mbx_receive   RTX_CM3.lib(rt_mailbox.o)
    0x000059c2   0x000059c2   0x0000000e   Code   RO         3259    i.isr_mbx_send      RTX_CM3.lib(rt_mailbox.o)
    0x000059d0   0x000059d0   0x00000010   Code   RO         3306    i.isr_sem_send      RTX_CM3.lib(rt_semaphore.o)
    0x000059e0   0x000059e0   0x0000004c   Code   RO           12    i.main              virtualcom.o
    0x00005a2c   0x00005a2c   0x00000018   Code   RO         2038    i.osDelay           RTX_CM3.lib(rt_cmsis.o)
    0x00005a44   0x00005a44   0x00000024   Code   RO         2039    i.osKernelInitialize  RTX_CM3.lib(rt_cmsis.o)
    0x00005a68   0x00005a68   0x0000006c   Code   RO         2041    i.osKernelStart     RTX_CM3.lib(rt_cmsis.o)
    0x00005ad4   0x00005ad4   0x00000018   Code   RO         2050    i.osMessageGet      RTX_CM3.lib(rt_cmsis.o)
    0x00005aec   0x00005aec   0x0000002c   Code   RO         2060    i.osSemaphoreCreate  RTX_CM3.lib(rt_cmsis.o)
    0x00005b18   0x00005b18   0x00000018   Code   RO         2062    i.osSemaphoreRelease  RTX_CM3.lib(rt_cmsis.o)
    0x00005b30   0x00005b30   0x00000018   Code   RO         2063    i.osSemaphoreWait   RTX_CM3.lib(rt_cmsis.o)
    0x00005b48   0x00005b48   0x00000018   Code   RO         2065    i.osSignalSet       RTX_CM3.lib(rt_cmsis.o)
    0x00005b60   0x00005b60   0x00000018   Code   RO         2066    i.osSignalWait      RTX_CM3.lib(rt_cmsis.o)
    0x00005b78   0x00005b78   0x0000002c   Code   RO         2067    i.osThreadCreate    RTX_CM3.lib(rt_cmsis.o)
    0x00005ba4   0x00005ba4   0x00000018   Code   RO         2068    i.osThreadExit      RTX_CM3.lib(rt_cmsis.o)
    0x00005bbc   0x00005bbc   0x0000000c   Code   RO         2074    i.osTimerCall       RTX_CM3.lib(rt_cmsis.o)
    0x00005bc8   0x00005bc8   0x0000002c   Code   RO         2079    i.osTimerThread     RTX_CM3.lib(rt_cmsis.o)
    0x00005bf4   0x00005bf4   0x00000002   Code   RO          493    i.os_error          rtx_conf_cm.o
    0x00005bf6   0x00005bf6   0x00000002   Code   RO          494    i.os_idle_demon     rtx_conf_cm.o
    0x00005bf8   0x00005bf8   0x00000028   Code   RO         3050    i.os_tick_init      RTX_CM3.lib(rt_system.o)
    0x00005c20   0x00005c20   0x00000002   Code   RO         3051    i.os_tick_irqack    RTX_CM3.lib(rt_system.o)
    0x00005c22   0x00005c22   0x0000001a   Code   RO         3404    i.rt_alloc_box      RTX_CM3.lib(rt_membox.o)
    0x00005c3c   0x00005c3c   0x0000003e   Code   RO         3432    i.rt_alloc_mem      RTX_CM3.lib(rt_memory.o)
    0x00005c7a   0x00005c7a   0x00000002   PAD
    0x00005c7c   0x00005c7c   0x00000038   Code   RO         2653    i.rt_block          RTX_CM3.lib(rt_task.o)
    0x00005cb4   0x00005cb4   0x00000048   Code   RO         3381    i.rt_chk_robin      RTX_CM3.lib(rt_robin.o)
    0x00005cfc   0x00005cfc   0x00000070   Code   RO         3182    i.rt_dec_dly        RTX_CM3.lib(rt_list.o)
    0x00005d6c   0x00005d6c   0x00000044   Code   RO         2654    i.rt_dispatch       RTX_CM3.lib(rt_task.o)
    0x00005db0   0x00005db0   0x00000006   Code   RO         3348    i.rt_dly_wait       RTX_CM3.lib(rt_time.o)
    0x00005db6   0x00005db6   0x00000002   PAD
    0x00005db8   0x00005db8   0x00000050   Code   RO         3143    i.rt_evt_psh        RTX_CM3.lib(rt_event.o)
    0x00005e08   0x00005e08   0x0000005c   Code   RO         3144    i.rt_evt_set        RTX_CM3.lib(rt_event.o)
    0x00005e64   0x00005e64   0x0000003c   Code   RO         3145    i.rt_evt_wait       RTX_CM3.lib(rt_event.o)
    0x00005ea0   0x00005ea0   0x0000002c   Code   RO         3405    i.rt_free_box       RTX_CM3.lib(rt_membox.o)
    0x00005ecc   0x00005ecc   0x00000028   Code   RO         3433    i.rt_free_mem       RTX_CM3.lib(rt_memory.o)
    0x00005ef4   0x00005ef4   0x00000028   Code   RO         3183    i.rt_get_first      RTX_CM3.lib(rt_list.o)
    0x00005f1c   0x00005f1c   0x00000008   Code   RO         2084    i.rt_id2obj         RTX_CM3.lib(rt_cmsis.o)
    0x00005f24   0x00005f24   0x00000048   Code   RO         2655    i.rt_init_context   RTX_CM3.lib(rt_task.o)
    0x00005f6c   0x00005f6c   0x0000001a   Code   RO         3434    i.rt_init_mem       RTX_CM3.lib(rt_memory.o)
    0x00005f86   0x00005f86   0x00000002   PAD
    0x00005f88   0x00005f88   0x00000018   Code   RO         3382    i.rt_init_robin     RTX_CM3.lib(rt_robin.o)
    0x00005fa0   0x00005fa0   0x00000080   Code   RO         3459    i.rt_init_stack     RTX_CM3.lib(hal_cm.o)
    0x00006020   0x00006020   0x00000008   Code   RO         3260    i.rt_mbx_check      RTX_CM3.lib(rt_mailbox.o)
    0x00006028   0x00006028   0x0000001a   Code   RO         3261    i.rt_mbx_init       RTX_CM3.lib(rt_mailbox.o)
    0x00006042   0x00006042   0x00000002   PAD
    0x00006044   0x00006044   0x000000f0   Code   RO         3262    i.rt_mbx_psh        RTX_CM3.lib(rt_mailbox.o)
    0x00006134   0x00006134   0x000000b4   Code   RO         3264    i.rt_mbx_wait       RTX_CM3.lib(rt_mailbox.o)
    0x000061e8   0x000061e8   0x00000044   Code   RO         2085    i.rt_ms2tick        RTX_CM3.lib(rt_cmsis.o)
    0x0000622c   0x0000622c   0x000000d8   Code   RO         2739    i.rt_mut_release    RTX_CM3.lib(rt_mutex.o)
    0x00006304   0x00006304   0x00000078   Code   RO         2740    i.rt_mut_wait       RTX_CM3.lib(rt_mutex.o)
    0x0000637c   0x0000637c   0x0000007c   Code   RO         3054    i.rt_pop_req        RTX_CM3.lib(rt_system.o)
    0x000063f8   0x000063f8   0x00000020   Code   RO         3055    i.rt_psh_req        RTX_CM3.lib(rt_system.o)
    0x00006418   0x00006418   0x0000005c   Code   RO         3185    i.rt_psq_enq        RTX_CM3.lib(rt_list.o)
    0x00006474   0x00006474   0x00000048   Code   RO         3186    i.rt_put_dly        RTX_CM3.lib(rt_list.o)
    0x000064bc   0x000064bc   0x00000036   Code   RO         3187    i.rt_put_prio       RTX_CM3.lib(rt_list.o)
    0x000064f2   0x000064f2   0x00000002   PAD
    0x000064f4   0x000064f4   0x00000014   Code   RO         3188    i.rt_put_rdy_first  RTX_CM3.lib(rt_list.o)
    0x00006508   0x00006508   0x00000034   Code   RO         3189    i.rt_resort_prio    RTX_CM3.lib(rt_list.o)
    0x0000653c   0x0000653c   0x00000006   Code   RO         3460    i.rt_ret_val        RTX_CM3.lib(hal_cm.o)
    0x00006542   0x00006542   0x00000008   Code   RO         3461    i.rt_ret_val2       RTX_CM3.lib(hal_cm.o)
    0x0000654a   0x0000654a   0x00000028   Code   RO         3190    i.rt_rmv_dly        RTX_CM3.lib(rt_list.o)
    0x00006572   0x00006572   0x00000002   PAD
    0x00006574   0x00006574   0x00000030   Code   RO         3191    i.rt_rmv_list       RTX_CM3.lib(rt_list.o)
    0x000065a4   0x000065a4   0x0000000c   Code   RO         3308    i.rt_sem_init       RTX_CM3.lib(rt_semaphore.o)
    0x000065b0   0x000065b0   0x00000034   Code   RO         3309    i.rt_sem_psh        RTX_CM3.lib(rt_semaphore.o)
    0x000065e4   0x000065e4   0x0000002a   Code   RO         3310    i.rt_sem_send       RTX_CM3.lib(rt_semaphore.o)
    0x0000660e   0x0000660e   0x00000002   PAD
    0x00006610   0x00006610   0x00000040   Code   RO         3311    i.rt_sem_wait       RTX_CM3.lib(rt_semaphore.o)
    0x00006650   0x00006650   0x00000024   Code   RO         3057    i.rt_stk_check      RTX_CM3.lib(rt_system.o)
    0x00006674   0x00006674   0x00000028   Code   RO         2656    i.rt_switch_req     RTX_CM3.lib(rt_task.o)
    0x0000669c   0x0000669c   0x000000cc   Code   RO         2657    i.rt_sys_init       RTX_CM3.lib(rt_task.o)
    0x00006768   0x00006768   0x00000078   Code   RO         2658    i.rt_sys_start      RTX_CM3.lib(rt_task.o)
    0x000067e0   0x000067e0   0x00000040   Code   RO         3059    i.rt_systick        RTX_CM3.lib(rt_system.o)
    0x00006820   0x00006820   0x00000012   Code   RO         2086    i.rt_tid2ptcb       RTX_CM3.lib(rt_cmsis.o)
    0x00006832   0x00006832   0x00000002   PAD
    0x00006834   0x00006834   0x00000034   Code   RO         2087    i.rt_timer_insert   RTX_CM3.lib(rt_cmsis.o)
    0x00006868   0x00006868   0x00000088   Code   RO         2659    i.rt_tsk_create     RTX_CM3.lib(rt_task.o)
    0x000068f0   0x000068f0   0x0000017c   Code   RO         2660    i.rt_tsk_delete     RTX_CM3.lib(rt_task.o)
    0x00006a6c   0x00006a6c   0x0000007c   Code   RO         2662    i.rt_tsk_prio       RTX_CM3.lib(rt_task.o)
    0x00006ae8   0x00006ae8   0x00000010   Code   RO         2663    i.rt_tsk_self       RTX_CM3.lib(rt_task.o)
    0x00006af8   0x00006af8   0x00000080   Code   RO           13    i.send0             virtualcom.o
    0x00006b78   0x00006b78   0x00000012   Code   RO         2089    i.svcDelay          RTX_CM3.lib(rt_cmsis.o)
    0x00006b8a   0x00006b8a   0x00000002   PAD
    0x00006b8c   0x00006b8c   0x00000070   Code   RO         2090    i.svcKernelInitialize  RTX_CM3.lib(rt_cmsis.o)
    0x00006bfc   0x00006bfc   0x00000048   Code   RO         2092    i.svcKernelStart    RTX_CM3.lib(rt_cmsis.o)
    0x00006c44   0x00006c44   0x00000024   Code   RO         2095    i.svcMessageCreate  RTX_CM3.lib(rt_cmsis.o)
    0x00006c68   0x00006c68   0x0000003a   Code   RO         2096    i.svcMessageGet     RTX_CM3.lib(rt_cmsis.o)
    0x00006ca2   0x00006ca2   0x00000024   Code   RO         2103    i.svcSemaphoreCreate  RTX_CM3.lib(rt_cmsis.o)
    0x00006cc6   0x00006cc6   0x00000028   Code   RO         2105    i.svcSemaphoreRelease  RTX_CM3.lib(rt_cmsis.o)
    0x00006cee   0x00006cee   0x00000032   Code   RO         2106    i.svcSemaphoreWait  RTX_CM3.lib(rt_cmsis.o)
    0x00006d20   0x00006d20   0x00000024   Code   RO         2108    i.svcSignalSet      RTX_CM3.lib(rt_cmsis.o)
    0x00006d44   0x00006d44   0x00000054   Code   RO         2109    i.svcSignalWait     RTX_CM3.lib(rt_cmsis.o)
    0x00006d98   0x00006d98   0x0000006c   Code   RO         2110    i.svcThreadCreate   RTX_CM3.lib(rt_cmsis.o)
    0x00006e04   0x00006e04   0x0000001c   Code   RO         2111    i.svcThreadGetId    RTX_CM3.lib(rt_cmsis.o)
    0x00006e20   0x00006e20   0x00000038   Code   RO         2114    i.svcThreadTerminate  RTX_CM3.lib(rt_cmsis.o)
    0x00006e58   0x00006e58   0x00000018   Code   RO         2116    i.svcTimerCall      RTX_CM3.lib(rt_cmsis.o)
    0x00006e70   0x00006e70   0x0000005c   Code   RO         2125    i.sysTimerTick      RTX_CM3.lib(rt_cmsis.o)
    0x00006ecc   0x00006ecc   0x00000010   Data   RO           15    .constdata          virtualcom.o
    0x00006edc   0x00006edc   0x00000010   Data   RO          170    .constdata          usbd_user_cdc_acm_uart_0.o
    0x00006eec   0x00006eec   0x00000002   Data   RO          502    .constdata          rtx_conf_cm.o
    0x00006eee   0x00006eee   0x00000002   PAD
    0x00006ef0   0x00006ef0   0x00000004   Data   RO          503    .constdata          rtx_conf_cm.o
    0x00006ef4   0x00006ef4   0x00000004   Data   RO          504    .constdata          rtx_conf_cm.o
    0x00006ef8   0x00006ef8   0x00000004   Data   RO          508    .constdata          rtx_conf_cm.o
    0x00006efc   0x00006efc   0x00000001   Data   RO          509    .constdata          rtx_conf_cm.o
    0x00006efd   0x00006efd   0x00000003   PAD
    0x00006f00   0x00006f00   0x00000010   Data   RO          510    .constdata          rtx_conf_cm.o
    0x00006f10   0x00006f10   0x00000002   Data   RO          511    .constdata          rtx_conf_cm.o
    0x00006f12   0x00006f12   0x00000002   PAD
    0x00006f14   0x00006f14   0x00000004   Data   RO          512    .constdata          rtx_conf_cm.o
    0x00006f18   0x00006f18   0x00000004   Data   RO          513    .constdata          rtx_conf_cm.o
    0x00006f1c   0x00006f1c   0x00000001   Data   RO          514    .constdata          rtx_conf_cm.o
    0x00006f1d   0x00006f1d   0x00000003   PAD
    0x00006f20   0x00006f20   0x00000010   Data   RO          515    .constdata          rtx_conf_cm.o
    0x00006f30   0x00006f30   0x00000008   Data   RO          516    .constdata          rtx_conf_cm.o
    0x00006f38   0x00006f38   0x00000002   Data   RO          517    .constdata          rtx_conf_cm.o
    0x00006f3a   0x00006f3a   0x00000002   PAD
    0x00006f3c   0x00006f3c   0x00000010   Data   RO          518    .constdata          rtx_conf_cm.o
    0x00006f4c   0x00006f4c   0x00000050   Data   RO          649    .constdata          ssp_lpc17xx.o
    0x00006f9c   0x00006f9c   0x00000188   Data   RO          832    .constdata          uart_lpc17xx.o
    0x00007124   0x00007124   0x00000008   Data   RO          833    .constdata          uart_lpc17xx.o
    0x0000712c   0x0000712c   0x00000008   Data   RO          834    .constdata          uart_lpc17xx.o
    0x00007134   0x00007134   0x00000038   Data   RO          835    .constdata          uart_lpc17xx.o
    0x0000716c   0x0000716c   0x00000008   Data   RO         1016    .constdata          usbd_lpc17xx.o
    0x00007174   0x00007174   0x00000048   Data   RO         1017    .constdata          usbd_lpc17xx.o
    0x000071bc   0x000071bc   0x0000001c   Data   RO         1476    .constdata          usbd_config_0.o
    0x000071d8   0x000071d8   0x00000010   Data   RO         1477    .constdata          usbd_config_0.o
    0x000071e8   0x000071e8   0x00000001   Data   RO         1478    .constdata          usbd_config_0.o
    0x000071e9   0x000071e9   0x00000003   PAD
    0x000071ec   0x000071ec   0x00000004   Data   RO         1479    .constdata          usbd_config_0.o
    0x000071f0   0x000071f0   0x00000001   Data   RO         1480    .constdata          usbd_config_0.o
    0x000071f1   0x000071f1   0x00000003   PAD
    0x000071f4   0x000071f4   0x00000048   Data   RO         1481    .constdata          usbd_config_0.o
    0x0000723c   0x0000723c   0x0000002c   Data   RO         1482    .constdata          usbd_config_0.o
    0x00007268   0x00007268   0x00000010   Data   RO         1483    .constdata          usbd_config_0.o
    0x00007278   0x00007278   0x00000010   Data   RO         1484    .constdata          usbd_config_0.o
    0x00007288   0x00007288   0x00000004   Data   RO         1485    .constdata          usbd_config_0.o
    0x0000728c   0x0000728c   0x00000004   Data   RO         1486    .constdata          usbd_config_0.o
    0x00007290   0x00007290   0x00000004   Data   RO         1487    .constdata          usbd_config_0.o
    0x00007294   0x00007294   0x00000004   Data   RO         1488    .constdata          usbd_config_0.o
    0x00007298   0x00007298   0x00000004   Data   RO         1489    .constdata          usbd_config_0.o
    0x0000729c   0x0000729c   0x00000004   Data   RO         1490    .constdata          usbd_config_0.o
    0x000072a0   0x000072a0   0x00000004   Data   RO         1491    .constdata          usbd_config_0.o
    0x000072a4   0x000072a4   0x00000001   Data   RO         1492    .constdata          usbd_config_0.o
    0x000072a5   0x000072a5   0x00000003   PAD
    0x000072a8   0x000072a8   0x00000004   Data   RO         1493    .constdata          usbd_config_0.o
    0x000072ac   0x000072ac   0x00000004   Data   RO         1494    .constdata          usbd_config_0.o
    0x000072b0   0x000072b0   0x00000004   Data   RO         1495    .constdata          usbd_config_0.o
    0x000072b4   0x000072b4   0x00000004   Data   RO         1497    .constdata          usbd_config_0.o
    0x000072b8   0x000072b8   0x00000004   Data   RO         1498    .constdata          usbd_config_0.o
    0x000072bc   0x000072bc   0x00000004   Data   RO         1499    .constdata          usbd_config_0.o
    0x000072c0   0x000072c0   0x00000004   Data   RO         1500    .constdata          usbd_config_0.o
    0x000072c4   0x000072c4   0x00000004   Data   RO         1501    .constdata          usbd_config_0.o
    0x000072c8   0x000072c8   0x00000004   Data   RO         1502    .constdata          usbd_config_0.o
    0x000072cc   0x000072cc   0x00000004   Data   RO         1503    .constdata          usbd_config_0.o
    0x000072d0   0x000072d0   0x00000004   Data   RO         1505    .constdata          usbd_config_0.o
    0x000072d4   0x000072d4   0x00000004   Data   RO         1506    .constdata          usbd_config_0.o
    0x000072d8   0x000072d8   0x00000004   Data   RO         1507    .constdata          usbd_config_0.o
    0x000072dc   0x000072dc   0x00000004   Data   RO         1508    .constdata          usbd_config_0.o
    0x000072e0   0x000072e0   0x00000004   Data   RO         1509    .constdata          usbd_config_0.o
    0x000072e4   0x000072e4   0x00000004   Data   RO         1510    .constdata          usbd_config_0.o
    0x000072e8   0x000072e8   0x00000004   Data   RO         1511    .constdata          usbd_config_0.o
    0x000072ec   0x000072ec   0x00000004   Data   RO         1512    .constdata          usbd_config_0.o
    0x000072f0   0x000072f0   0x00000004   Data   RO         1513    .constdata          usbd_config_0.o
    0x000072f4   0x000072f4   0x00000004   Data   RO         1514    .constdata          usbd_config_0.o
    0x000072f8   0x000072f8   0x00000004   Data   RO         1515    .constdata          usbd_config_0.o
    0x000072fc   0x000072fc   0x00000004   Data   RO         1516    .constdata          usbd_config_0.o
    0x00007300   0x00007300   0x00000004   Data   RO         1517    .constdata          usbd_config_0.o
    0x00007304   0x00007304   0x00000004   Data   RO         1518    .constdata          usbd_config_0.o
    0x00007308   0x00007308   0x00000004   Data   RO         1519    .constdata          usbd_config_0.o
    0x0000730c   0x0000730c   0x00000004   Data   RO         1520    .constdata          usbd_config_0.o
    0x00007310   0x00007310   0x00000004   Data   RO         1521    .constdata          usbd_config_0.o
    0x00007314   0x00007314   0x00000004   Data   RO         1522    .constdata          usbd_config_0.o
    0x00007318   0x00007318   0x00000004   Data   RO         1523    .constdata          usbd_config_0.o
    0x0000731c   0x0000731c   0x00000004   Data   RO         1524    .constdata          usbd_config_0.o
    0x00007320   0x00007320   0x00000004   Data   RO         1525    .constdata          usbd_config_0.o
    0x00007324   0x00007324   0x00000004   Data   RO         1526    .constdata          usbd_config_0.o
    0x00007328   0x00007328   0x00000004   Data   RO         1528    .constdata          usbd_config_0.o
    0x0000732c   0x0000732c   0x00000004   Data   RO         1529    .constdata          usbd_config_0.o
    0x00007330   0x00007330   0x00000004   Data   RO         1530    .constdata          usbd_config_0.o
    0x00007334   0x00007334   0x00000004   Data   RO         1531    .constdata          usbd_config_0.o
    0x00007338   0x00007338   0x00000004   Data   RO         1532    .constdata          usbd_config_0.o
    0x0000733c   0x0000733c   0x00000004   Data   RO         1533    .constdata          usbd_config_0.o
    0x00007340   0x00007340   0x00000004   Data   RO         1534    .constdata          usbd_config_0.o
    0x00007344   0x00007344   0x00000004   Data   RO         1535    .constdata          usbd_config_0.o
    0x00007348   0x00007348   0x00000004   Data   RO         1536    .constdata          usbd_config_0.o
    0x0000734c   0x0000734c   0x00000004   Data   RO         1537    .constdata          usbd_config_0.o
    0x00007350   0x00007350   0x00000004   Data   RO         1538    .constdata          usbd_config_0.o
    0x00007354   0x00007354   0x00000004   Data   RO         1539    .constdata          usbd_config_0.o
    0x00007358   0x00007358   0x00000007   Data   RO         1540    .constdata          usbd_config_0.o
    0x0000735f   0x0000735f   0x00000001   PAD
    0x00007360   0x00007360   0x00000012   Data   RO         1541    .constdata          usbd_config_0.o
    0x00007372   0x00007372   0x00000002   PAD
    0x00007374   0x00007374   0x00000044   Data   RO         1542    .constdata          usbd_config_0.o
    0x000073b8   0x000073b8   0x00000001   Data   RO         1543    .constdata          usbd_config_0.o
    0x000073b9   0x000073b9   0x00000001   Data   RO         1544    .constdata          usbd_config_0.o
    0x000073ba   0x000073ba   0x00000001   Data   RO         1545    .constdata          usbd_config_0.o
    0x000073bb   0x000073bb   0x00000001   Data   RO         1546    .constdata          usbd_config_0.o
    0x000073bc   0x000073bc   0x00000001   Data   RO         1547    .constdata          usbd_config_0.o
    0x000073bd   0x000073bd   0x00000003   PAD
    0x000073c0   0x000073c0   0x00000087   Data   RO         1548    .constdata          usbd_config_0.o
    0x00007447   0x00007447   0x00000001   PAD
    0x00007448   0x00007448   0x00000020   Data   RO         3746    Region$$Table       anon$$obj.o
    0x00007468   0x00007468   0x00000004   Data   RO         3517    __MW_USB_LIB_VERSION_6.12.4  USB_CM3_L.lib(usb_lib_ver.o)


    Execution Region RW_IRAM1 (Exec base: 0x10000000, Load base: 0x0000746c, Size: 0x00003650, Max: 0x00008000, ABSOLUTE, COMPRESSED[0x00000040])

    Exec Addr    Load Addr    Size         Type   Attr      Idx    E Section Name        Object

    0x10000000   COMPRESSED   0x00000018   Data   RW           16    .data               virtualcom.o
    0x10000018   COMPRESSED   0x00000013   Data   RW          171    .data               usbd_user_cdc_acm_uart_0.o
    0x1000002b   COMPRESSED   0x00000001   PAD
    0x1000002c   COMPRESSED   0x00000004   Data   RW          520    .data               rtx_conf_cm.o
    0x10000030   COMPRESSED   0x00000004   Data   RW          521    .data               rtx_conf_cm.o
    0x10000034   COMPRESSED   0x00000004   Data   RW          522    .data               rtx_conf_cm.o
    0x10000038   COMPRESSED   0x00000002   Data   RW          578    .data               otg_lpc17xx.o
    0x1000003a   COMPRESSED   0x00000001   Data   RW          579    .data               otg_lpc17xx.o
    0x1000003b   COMPRESSED   0x00000002   Data   RW          651    .data               ssp_lpc17xx.o
    0x1000003d   COMPRESSED   0x00000002   Data   RW          652    .data               ssp_lpc17xx.o
    0x1000003f   COMPRESSED   0x00000002   Data   RW          653    .data               ssp_lpc17xx.o
    0x10000041   COMPRESSED   0x00000002   Data   RW          654    .data               ssp_lpc17xx.o
    0x10000043   COMPRESSED   0x00000001   PAD
    0x10000044   COMPRESSED   0x0000001c   Data   RW         1018    .data               usbd_lpc17xx.o
    0x10000060   COMPRESSED   0x00000008   Data   RW         1172    .data               gpdma_lpc17xx.o
    0x10000068   COMPRESSED   0x00000004   Data   RW         1351    .data               system_lpc17xx.o
    0x1000006c   COMPRESSED   0x00000008   Data   RW         1549    .data               usbd_config_0.o
    0x10000074   COMPRESSED   0x00000008   Data   RW         1550    .data               usbd_config_0.o
    0x1000007c   COMPRESSED   0x00000008   Data   RW         1551    .data               usbd_config_0.o
    0x10000084   COMPRESSED   0x00000008   Data   RW         1552    .data               usbd_config_0.o
    0x1000008c   COMPRESSED   0x00000008   Data   RW         1553    .data               usbd_config_0.o
    0x10000094   COMPRESSED   0x00000008   Data   RW         1554    .data               usbd_config_0.o
    0x1000009c   COMPRESSED   0x00000008   Data   RW         1555    .data               usbd_config_0.o
    0x100000a4   COMPRESSED   0x0000000c   Data   RW         1556    .data               usbd_config_0.o
    0x100000b0   COMPRESSED   0x00000030   Data   RW         1557    .data               usbd_config_0.o
    0x100000e0   COMPRESSED   0x00000004   Data   RW         1558    .data               usbd_config_0.o
    0x100000e4   COMPRESSED   0x00000002   Data   RW         1559    .data               usbd_config_0.o
    0x100000e6   COMPRESSED   0x00000002   PAD
    0x100000e8   COMPRESSED   0x00000004   Data   RW         1560    .data               usbd_config_0.o
    0x100000ec   COMPRESSED   0x00000004   Data   RW         1561    .data               usbd_config_0.o
    0x100000f0   COMPRESSED   0x00000004   Data   RW         1562    .data               usbd_config_0.o
    0x100000f4   COMPRESSED   0x00000004   Data   RW         1563    .data               usbd_config_0.o
    0x100000f8   COMPRESSED   0x00000004   Data   RW         1564    .data               usbd_config_0.o
    0x100000fc   COMPRESSED   0x00000004   Data   RW         1565    .data               usbd_config_0.o
    0x10000100   COMPRESSED   0x00000008   Data   RW         2128    .data               RTX_CM3.lib(rt_cmsis.o)
    0x10000108   COMPRESSED   0x00000008   Data   RW         2665    .data               RTX_CM3.lib(rt_task.o)
    0x10000110   COMPRESSED   0x00000010   Data   RW         2809    .data               USB_CM3_L.lib(usbd_lib_core.o)
    0x10000120   COMPRESSED   0x00000017   Data   RW         2975    .data               USB_CM3_L.lib(usbd_lib_cdc.o)
    0x10000137   COMPRESSED   0x00000001   PAD
    0x10000138   COMPRESSED   0x00000008   Data   RW         3062    .data               RTX_CM3.lib(rt_system.o)
    0x10000140   COMPRESSED   0x00000004   Data   RW         3352    .data               RTX_CM3.lib(rt_time.o)
    0x10000144   COMPRESSED   0x00000008   Data   RW         3383    .data               RTX_CM3.lib(rt_robin.o)
    0x1000014c   COMPRESSED   0x00000001   Data   RW         3462    .data               RTX_CM3.lib(hal_cm.o)
    0x1000014d   COMPRESSED   0x00000003   PAD
    0x10000150        -       0x00000642   Zero   RW           14    .bss                virtualcom.o
    0x10000792        -       0x00000400   Zero   RW          169    .bss                usbd_user_cdc_acm_uart_0.o
    0x10000b92   COMPRESSED   0x00000002   PAD
    0x10000b94        -       0x00000020   Zero   RW          495    .bss                rtx_conf_cm.o
    0x10000bb4        -       0x000001e0   Zero   RW          496    .bss                rtx_conf_cm.o
    0x10000d94   COMPRESSED   0x00000004   PAD
    0x10000d98        -       0x00000510   Zero   RW          497    .bss                rtx_conf_cm.o
    0x100012a8        -       0x00000b00   Zero   RW          498    .bss                rtx_conf_cm.o
    0x10001da8        -       0x00000084   Zero   RW          499    .bss                rtx_conf_cm.o
    0x10001e2c        -       0x00000024   Zero   RW          500    .bss                rtx_conf_cm.o
    0x10001e50        -       0x0000000c   Zero   RW          647    .bss                ssp_lpc17xx.o
    0x10001e5c        -       0x0000001c   Zero   RW          648    .bss                ssp_lpc17xx.o
    0x10001e78        -       0x00000034   Zero   RW          831    .bss                uart_lpc17xx.o
    0x10001eac        -       0x00000280   Zero   RW         1015    .bss                usbd_lpc17xx.o
    0x1000212c        -       0x000000a0   Zero   RW         1171    .bss                gpdma_lpc17xx.o
    0x100021cc        -       0x00000040   Zero   RW         1466    .bss                usbd_config_0.o
    0x1000220c        -       0x000000b0   Zero   RW         1467    .bss                usbd_config_0.o
    0x100022bc        -       0x00000018   Zero   RW         1468    .bss                usbd_config_0.o
    0x100022d4        -       0x00000400   Zero   RW         1469    .bss                usbd_config_0.o
    0x100026d4        -       0x00000800   Zero   RW         1470    .bss                usbd_config_0.o
    0x10002ed4        -       0x0000000a   Zero   RW         1471    .bss                usbd_config_0.o
    0x10002ede   COMPRESSED   0x00000002   PAD
    0x10002ee0        -       0x00000200   Zero   RW         1472    .bss                usbd_config_0.o
    0x100030e0        -       0x00000200   Zero   RW         1473    .bss                usbd_config_0.o
    0x100032e0        -       0x00000084   Zero   RW         1474    .bss                usbd_config_0.o
    0x10003364        -       0x00000022   Zero   RW         1475    .bss                usbd_config_0.o
    0x10003386   COMPRESSED   0x00000002   PAD
    0x10003388        -       0x00000034   Zero   RW         2664    .bss                RTX_CM3.lib(rt_task.o)
    0x100033bc        -       0x00000030   Zero   RW         3192    .bss                RTX_CM3.lib(rt_list.o)
    0x100033ec        -       0x00000060   Zero   RW         3569    .bss                c_w.l(libspace.o)
    0x1000344c   COMPRESSED   0x00000004   PAD
    0x10003450        -       0x00000000   Zero   RW         1337    HEAP                startup_lpc17xx.o
    0x10003450        -       0x00000200   Zero   RW         1336    STACK               startup_lpc17xx.o


==============================================================================

Image component sizes


      Code (inc. data)   RO Data    RW Data    ZI Data      Debug   Object Name

         0          0          0          0          0       4472   glcd_mcb1700.o
       862         78          0          8        160       8210   gpdma_lpc17xx.o
       304          8          0          3          0       2020   otg_lpc17xx.o
       104          4          0          0          0        864   pin_lpc17xx.o
        92         26         84         12       4792       9219   rtx_conf_cm.o
       284         18         80          8         40      39737   ssp_lpc17xx.o
        64         26        204          0        512       1068   startup_lpc17xx.o
       212         12          0          4          0        903   system_lpc17xx.o
      4416        142        464          0         52      30111   uart_lpc17xx.o
       634         36        636        146       4536      61589   usbd_config_0.o
      3310        324         80         28        640      22911   usbd_lpc17xx.o
       564         80         16         19       1024      12820   usbd_user_cdc_acm_uart_0.o
       530         68         16         24       1602      75158   virtualcom.o

    ----------------------------------------------------------------------
     11386        822       1640        256      13368     269082   Object Totals
         0          0         32          0          0          0   (incl. Generated)
        10          0         28          4         10          0   (incl. Padding)

    ----------------------------------------------------------------------

      Code (inc. data)   RO Data    RW Data    ZI Data      Debug   Library Member Name

       238         24          0          1          0       3312   hal_cm.o
       304         36          0          0          0        768   hal_cm3.o
      1614        178          0          8          0      40761   rt_cmsis.o
       272         18          0          0          0       2650   rt_event.o
       530         34          0          0         48       8253   rt_list.o
       554         10          0          0          0       3949   rt_mailbox.o
       140          0          0          0          0       1925   rt_membox.o
       128          0          0          0          0       2307   rt_memory.o
       336         14          0          0          0       1643   rt_mutex.o
        96         22          0          8          0       1158   rt_robin.o
       186         10          0          0          0       2902   rt_semaphore.o
       298         52          0          8          0       6223   rt_system.o
      1216        174          0          8         52       9649   rt_task.o
         6          0          0          4          0        652   rt_time.o
         4          4          0          0          0        208   svc_table.o
         0          0          4          0          0          0   usb_lib_ver.o
      2940        276          0         23          0       3104   usbd_lib_cdc.o
      3906        240          0         16          0       1664   usbd_lib_core.o
      1048         42          0          0          0        200   usbd_lib_core_cdc.o
       276         54          0          0          0        324   usbd_lib_core_device.o
      1720        146          0          0          0       1276   usbd_lib_drv.o
        58          0          0          0          0          0   __dczerorl.o
         8          0          0          0          0         68   __main.o
         0          0          0          0          0          0   __rtentry.o
        20          0          0          0          0          0   __rtentry2.o
         6          0          0          0          0          0   __rtentry4.o
        52          8          0          0          0          0   __scatter.o
        28          0          0          0          0          0   __scatter_zi.o
        18          0          0          0          0         80   exit.o
         6          0          0          0          0        152   heapauxi.o
         0          0          0          0          0          0   indicate_semi.o
         2          0          0          0          0          0   libinit.o
         2          0          0          0          0          0   libinit2.o
         2          0          0          0          0          0   libshutdown.o
         2          0          0          0          0          0   libshutdown2.o
         8          4          0          0         96         68   libspace.o
       238          0          0          0          0        100   lludivv7m.o
        68          0          0          0          0         68   rt_memclr.o
        78          0          0          0          0         80   rt_memclr_w.o
       138          0          0          0          0         68   rt_memcpy_v6.o
       100          0          0          0          0         80   rt_memcpy_w.o
         2          0          0          0          0          0   rtexit.o
        10          0          0          0          0          0   rtexit2.o
        12          4          0          0          0         68   sys_exit.o
        74          0          0          0          0         80   sys_stackheap_outer.o
         2          0          0          0          0         68   use_no_semi.o

    ----------------------------------------------------------------------
     16774       1350          4         80        200      93908   Library Totals
        28          0          0          4          4          0   (incl. Padding)

    ----------------------------------------------------------------------

      Code (inc. data)   RO Data    RW Data    ZI Data      Debug   Library Name

      5922        576          0         37        100      86360   RTX_CM3.lib
      9890        758          4         39          0       6568   USB_CM3_L.lib
       934         16          0          0         96        980   c_w.l

    ----------------------------------------------------------------------
     16774       1350          4         80        200      93908   Library Totals

    ----------------------------------------------------------------------

==============================================================================


      Code (inc. data)   RO Data    RW Data    ZI Data      Debug   

     28160       2172       1644        336      13568     345202   Grand Totals
     28160       2172       1644         64      13568     345202   ELF Image Totals (compressed)
     28160       2172       1644         64          0          0   ROM Totals

==============================================================================

    Total RO  Size (Code + RO Data)                29804 (  29.11kB)
    Total RW  Size (RW Data + ZI Data)             13904 (  13.58kB)
    Total ROM Size (Code + RO Data + RW Data)      29868 (  29.17kB)

==============================================================================

